

HI-TECH Software PIC LITE Macro Assembler V9.80 build 6745 
                                                                                               Wed Feb 20 15:42:27 2013

HI-TECH Software Omniscient Code Generator (Lite mode) build 6745
     1  0000                     opt subtitle "HI-TECH Software Omniscient Code Generator (Lite mode) build 6745"
     2                           
     3                           opt pagewidth 120
     4                           
     5                           	opt lm
     6                           
     7                           	processor	16F877A
     8                           clrc	macro
     9                           	bcf	3,0
    10  0000                     	endm
    11                           clrz	macro
    12                           	bcf	3,2
    13  0000                     	endm
    14                           setc	macro
    15                           	bsf	3,0
    16  0000                     	endm
    17                           setz	macro
    18                           	bsf	3,2
    19  0000                     	endm
    20                           skipc	macro
    21                           	btfss	3,0
    22  0000                     	endm
    23                           skipz	macro
    24                           	btfss	3,2
    25  0000                     	endm
    26                           skipnc	macro
    27                           	btfsc	3,0
    28  0000                     	endm
    29                           skipnz	macro
    30                           	btfsc	3,2
    31  0000                     	endm
    32  0000                     indf	equ	0
    33  0000                     indf0	equ	0
    34  0002                     pc	equ	2
    35  0002                     pcl	equ	2
    36  0003                     status	equ	3
    37  0004                     fsr	equ	4
    38  0004                     fsr0	equ	4
    39  0001                     c	equ	1
    40  0000                     z	equ	0
    41  000A                     pclath	equ	10
    42                           # 16 "PR23.c"
    43                           	psect config,class=CONFIG,delta=2 ;#
    44                           # 16 "PR23.c"
    45  2007  3F32               	dw 0x3F32 ;#
    46                           	FNCALL	_main,_init
    47                           	FNCALL	_main,_beep
    48                           	FNCALL	_main,_lcd_clr
    49                           	FNCALL	_main,_send_string
    50                           	FNCALL	_main,_lcd_goto
    51                           	FNCALL	_main,_line_follow
    52                           	FNCALL	_main,_ultrasonic
    53                           	FNCALL	_main,_analog_sen
    54                           	FNCALL	_main,_wireless_xbee
    55                           	FNCALL	_main,_SKPS_PScon
    56                           	FNCALL	_ultrasonic,_lcd_clr
    57                           	FNCALL	_ultrasonic,_send_string
    58                           	FNCALL	_ultrasonic,_lcd_goto
    59                           	FNCALL	_ultrasonic,_us_value
    60                           	FNCALL	_ultrasonic,_dis_num
    61                           	FNCALL	_ultrasonic,_forward
    62                           	FNCALL	_ultrasonic,_stop
    63                           	FNCALL	_ultrasonic,_backward
    64                           	FNCALL	_us_value,_read_adc
    65                           	FNCALL	_us_value,___wmul
    66                           	FNCALL	_us_value,_lcd_goto
    67                           	FNCALL	_us_value,_send_string
    68                           	FNCALL	_SKPS_PScon,_stop
    69                           	FNCALL	_SKPS_PScon,_lcd_clr
    70                           	FNCALL	_SKPS_PScon,_lcd_goto
    71                           	FNCALL	_SKPS_PScon,_send_string
    72                           	FNCALL	_SKPS_PScon,_skps
    73                           	FNCALL	_SKPS_PScon,_forward
    74                           	FNCALL	_SKPS_PScon,_backward
    75                           	FNCALL	_SKPS_PScon,_left
    76                           	FNCALL	_SKPS_PScon,_right
    77                           	FNCALL	_wireless_xbee,_lcd_clr
    78                           	FNCALL	_wireless_xbee,_lcd_goto
    79                           	FNCALL	_wireless_xbee,_send_string
    80                           	FNCALL	_wireless_xbee,_forward
    81                           	FNCALL	_wireless_xbee,_backward
    82                           	FNCALL	_wireless_xbee,_right
    83                           	FNCALL	_wireless_xbee,_left
    84                           	FNCALL	_wireless_xbee,_stop
    85                           	FNCALL	_analog_sen,_lcd_clr
    86                           	FNCALL	_analog_sen,_send_string
    87                           	FNCALL	_analog_sen,_lcd_goto
    88                           	FNCALL	_analog_sen,_read_adc
    89                           	FNCALL	_analog_sen,_dis_num
    90                           	FNCALL	_analog_sen,_backward
    91                           	FNCALL	_analog_sen,_stop
    92                           	FNCALL	_analog_sen,_forward
    93                           	FNCALL	_line_follow,_lcd_clr
    94                           	FNCALL	_line_follow,_send_string
    95                           	FNCALL	_line_follow,_forward
    96                           	FNCALL	_line_follow,_lcd_goto
    97                           	FNCALL	_dis_num,___lldiv
    98                           	FNCALL	_dis_num,___llmod
    99                           	FNCALL	_dis_num,_send_char
   100                           	FNCALL	_lcd_goto,_send_config
   101                           	FNCALL	_send_string,_send_char
   102                           	FNCALL	_lcd_clr,_send_config
   103                           	FNCALL	_lcd_clr,_delay_ms
   104                           	FNCALL	_init,_delay_ms
   105                           	FNCALL	_init,_send_config
   106                           	FNCALL	_init,_stop
   107                           	FNCALL	_send_char,_delay_ms
   108                           	FNCALL	_send_char,_e_pulse
   109                           	FNCALL	_send_config,_delay_ms
   110                           	FNCALL	_send_config,_e_pulse
   111                           	FNCALL	_e_pulse,_delay_ms
   112                           	FNCALL	_beep,_delay_ms
   113                           	FNCALL	_read_adc,_delay
   114                           	FNCALL	_read_adc,___lldiv
   115                           	FNCALL	_skps,_uart_send
   116                           	FNCALL	_skps,_uart_rec
   117                           	FNROOT	_main
   118                           	FNCALL	intlevel1,_isr
   119                           	global	intlevel1
   120                           	FNROOT	intlevel1
   121                           	global	_mode
   122                           psect	idataBANK0,class=CODE,space=0,delta=2
   123                           global __pidataBANK0
   124  0A8F                     __pidataBANK0:
   125                           	file	"PR23.c"
   126                           	line	99
   127                           
   128                           ;initializer for _mode
   129  0A8F  3422               	retlw	low(_line|8000h)
   130  0A90  3490               	retlw	high(_line|8000h)
   131                           
   132  0A91  3430               	retlw	low(_US|8000h)
   133  0A92  3490               	retlw	high(_US|8000h)
   134                           
   135  0A93  3412               	retlw	low(_AS|8000h)
   136  0A94  3490               	retlw	high(_AS|8000h)
   137                           
   138  0A95  343D               	retlw	low(_XB|8000h)
   139  0A96  3490               	retlw	high(_XB|8000h)
   140                           
   141  0A97  3446               	retlw	low(_SKPS|8000h)
   142  0A98  3490               	retlw	high(_SKPS|8000h)
   143                           
   144                           	global	_AS
   145                           psect	stringtext,class=STRCODE,delta=2,reloc=256
   146                           global __pstringtext
   147  1000                     __pstringtext:
   148                           ;	global	stringtab,__stringbase
   149  1000                     stringtab:
   150                           ;	String table - string pointers are 2 bytes each
   151  1000  1BFF               	btfsc	(btemp+1),7
   152  1001  280A               	ljmp	stringcode
   153  1002  1383               	bcf	status,7
   154  1003  187F               	btfsc	(btemp+1),0
   155  1004  1783               	bsf	status,7
   156  1005  0800               	movf	indf,w
   157  1006  0A84               	incf fsr
   158  1007  1903               skipnz
   159  1008  0AFF               incf btemp+1
   160  1009  0008               	return
   161  100A                     stringcode:
   162  100A  087F               	movf btemp+1,w
   163  100B  397F               andlw 7Fh
   164  100C  008A               movwf	pclath
   165  100D  0804               	movf	fsr,w
   166  100E  0A84               incf fsr
   167  100F  1903               skipnz
   168  1010  0AFF               incf btemp+1
   169  1011  0082               	movwf pc
   170  1012                     __stringbase:
   171                           	file	"PR23.c"
   172                           	line	96
   173  1012                     _AS:
   174  1012  3433               	retlw	033h
   175  1013  342E               	retlw	02Eh
   176  1014  3441               	retlw	041h
   177  1015  346E               	retlw	06Eh
   178  1016  3461               	retlw	061h
   179  1017  346C               	retlw	06Ch
   180  1018  346F               	retlw	06Fh
   181  1019  3467               	retlw	067h
   182  101A  3420               	retlw	020h
   183  101B  3453               	retlw	053h
   184  101C  3465               	retlw	065h
   185  101D  346E               	retlw	06Eh
   186  101E  3473               	retlw	073h
   187  101F  346F               	retlw	06Fh
   188  1020  3472               	retlw	072h
   189  1021  3400               	retlw	0
   190                           	global	_line
   191                           psect	stringtext
   192                           	file	"PR23.c"
   193                           	line	94
   194  1022                     _line:
   195  1022  3431               	retlw	031h
   196  1023  342E               	retlw	02Eh
   197  1024  344C               	retlw	04Ch
   198  1025  3449               	retlw	049h
   199  1026  344E               	retlw	04Eh
   200  1027  3445               	retlw	045h
   201  1028  3420               	retlw	020h
   202  1029  3446               	retlw	046h
   203  102A  344F               	retlw	04Fh
   204  102B  344C               	retlw	04Ch
   205  102C  344C               	retlw	04Ch
   206  102D  344F               	retlw	04Fh
   207  102E  3457               	retlw	057h
   208  102F  3400               	retlw	0
   209                           	global	_US
   210                           psect	stringtext
   211                           	file	"PR23.c"
   212                           	line	95
   213  1030                     _US:
   214  1030  3432               	retlw	032h
   215  1031  342E               	retlw	02Eh
   216  1032  3455               	retlw	055h
   217  1033  346C               	retlw	06Ch
   218  1034  3474               	retlw	074h
   219  1035  3472               	retlw	072h
   220  1036  3461               	retlw	061h
   221  1037  3473               	retlw	073h
   222  1038  346F               	retlw	06Fh
   223  1039  346E               	retlw	06Eh
   224  103A  3469               	retlw	069h
   225  103B  3463               	retlw	063h
   226  103C  3400               	retlw	0
   227                           	global	_XB
   228                           psect	stringtext
   229                           	file	"PR23.c"
   230                           	line	97
   231  103D                     _XB:
   232  103D  3434               	retlw	034h
   233  103E  342E               	retlw	02Eh
   234  103F  3453               	retlw	053h
   235  1040  344B               	retlw	04Bh
   236  1041  3458               	retlw	058h
   237  1042  3442               	retlw	042h
   238  1043  3445               	retlw	045h
   239  1044  3445               	retlw	045h
   240  1045  3400               	retlw	0
   241                           	global	_SKPS
   242                           psect	stringtext
   243                           	file	"PR23.c"
   244                           	line	98
   245  1046                     _SKPS:
   246  1046  3435               	retlw	035h
   247  1047  342E               	retlw	02Eh
   248  1048  3453               	retlw	053h
   249  1049  344B               	retlw	04Bh
   250  104A  3450               	retlw	050h
   251  104B  3453               	retlw	053h
   252  104C  3400               	retlw	0
   253                           	global	_AS
   254                           	global	_line
   255                           	global	_US
   256                           	global	_XB
   257                           	global	_SKPS
   258                           	global	_data
   259                           	global	_T
   260                           	global	_TH
   261                           	global	_result
   262                           	global	_To
   263                           	global	_REC
   264                           	global	_i
   265                           	global	_raw
   266                           	global	_ADCON0
   267  001F                     _ADCON0	set	31
   268                           	global	_ADRESH
   269  001E                     _ADRESH	set	30
   270                           	global	_CCP1CON
   271  0017                     _CCP1CON	set	23
   272                           	global	_CCP2CON
   273  001D                     _CCP2CON	set	29
   274                           	global	_CCPR1L
   275  0015                     _CCPR1L	set	21
   276                           	global	_CCPR2L
   277  001B                     _CCPR2L	set	27
   278                           	global	_PORTA
   279  0005                     _PORTA	set	5
   280                           	global	_PORTB
   281  0006                     _PORTB	set	6
   282                           	global	_PORTC
   283  0007                     _PORTC	set	7
   284                           	global	_PORTD
   285  0008                     _PORTD	set	8
   286                           	global	_PORTE
   287  0009                     _PORTE	set	9
   288                           	global	_RCREG
   289  001A                     _RCREG	set	26
   290                           	global	_T2CON
   291  0012                     _T2CON	set	18
   292                           	global	_TMR0
   293  0001                     _TMR0	set	1
   294                           	global	_TXREG
   295  0019                     _TXREG	set	25
   296                           	global	_ADGO
   297  00FA                     _ADGO	set	250
   298                           	global	_ADON
   299  00F8                     _ADON	set	248
   300                           	global	_CREN
   301  00C4                     _CREN	set	196
   302                           	global	_GIE
   303  005F                     _GIE	set	95
   304                           	global	_PEIE
   305  005E                     _PEIE	set	94
   306                           	global	_RA2
   307  002A                     _RA2	set	42
   308                           	global	_RB0
   309  0030                     _RB0	set	48
   310                           	global	_RB1
   311  0031                     _RB1	set	49
   312                           	global	_RB2
   313  0032                     _RB2	set	50
   314                           	global	_RB3
   315  0033                     _RB3	set	51
   316                           	global	_RB4
   317  0034                     _RB4	set	52
   318                           	global	_RB5
   319  0035                     _RB5	set	53
   320                           	global	_RB6
   321  0036                     _RB6	set	54
   322                           	global	_RB7
   323  0037                     _RB7	set	55
   324                           	global	_RBIE
   325  005B                     _RBIE	set	91
   326                           	global	_RBIF
   327  0058                     _RBIF	set	88
   328                           	global	_RC0
   329  0038                     _RC0	set	56
   330                           	global	_RC3
   331  003B                     _RC3	set	59
   332                           	global	_RC4
   333  003C                     _RC4	set	60
   334                           	global	_RC5
   335  003D                     _RC5	set	61
   336                           	global	_RCIF
   337  0065                     _RCIF	set	101
   338                           	global	_RE0
   339  0048                     _RE0	set	72
   340                           	global	_RE1
   341  0049                     _RE1	set	73
   342                           	global	_RE2
   343  004A                     _RE2	set	74
   344                           	global	_RX9
   345  00C6                     _RX9	set	198
   346                           	global	_SPEN
   347  00C7                     _SPEN	set	199
   348                           	global	_TMR0IE
   349  005D                     _TMR0IE	set	93
   350                           	global	_TMR0IF
   351  005A                     _TMR0IF	set	90
   352                           	global	_TXIF
   353  0064                     _TXIF	set	100
   354                           	global	_ADCON1
   355  009F                     _ADCON1	set	159
   356                           	global	_ADRESL
   357  009E                     _ADRESL	set	158
   358                           	global	_PR2
   359  0092                     _PR2	set	146
   360                           	global	_SPBRG
   361  0099                     _SPBRG	set	153
   362                           	global	_TRISA
   363  0085                     _TRISA	set	133
   364                           	global	_TRISB
   365  0086                     _TRISB	set	134
   366                           	global	_TRISC
   367  0087                     _TRISC	set	135
   368                           	global	_TRISD
   369  0088                     _TRISD	set	136
   370                           	global	_TRISE
   371  0089                     _TRISE	set	137
   372                           	global	_BRGH
   373  04C2                     _BRGH	set	1218
   374                           	global	_PS0
   375  0408                     _PS0	set	1032
   376                           	global	_PS1
   377  0409                     _PS1	set	1033
   378                           	global	_PS2
   379  040A                     _PS2	set	1034
   380                           	global	_PSA
   381  040B                     _PSA	set	1035
   382                           	global	_RCIE
   383  0465                     _RCIE	set	1125
   384                           	global	_T0CS
   385  040D                     _T0CS	set	1037
   386                           	global	_TX9
   387  04C6                     _TX9	set	1222
   388                           	global	_TXEN
   389  04C5                     _TXEN	set	1221
   390                           	
   391  104D                     STR_25:	
   392  104D  3449               	retlw	73	;'I'
   393  104E  344E               	retlw	78	;'N'
   394  104F  3456               	retlw	86	;'V'
   395  1050  3441               	retlw	65	;'A'
   396  1051  344C               	retlw	76	;'L'
   397  1052  3449               	retlw	73	;'I'
   398  1053  3444               	retlw	68	;'D'
   399  1054  3420               	retlw	32	;' '
   400  1055  3443               	retlw	67	;'C'
   401  1056  344F               	retlw	79	;'O'
   402  1057  344D               	retlw	77	;'M'
   403  1058  344D               	retlw	77	;'M'
   404  1059  3441               	retlw	65	;'A'
   405  105A  344E               	retlw	78	;'N'
   406  105B  3444               	retlw	68	;'D'
   407  105C  3420               	retlw	32	;' '
   408  105D  3420               	retlw	32	;' '
   409  105E  3400               	retlw	0
   410                           psect	stringtext
   411                           	
   412  105F                     STR_22:	
   413  105F  3442               	retlw	66	;'B'
   414  1060  3441               	retlw	65	;'A'
   415  1061  3443               	retlw	67	;'C'
   416  1062  344B               	retlw	75	;'K'
   417  1063  3457               	retlw	87	;'W'
   418  1064  3441               	retlw	65	;'A'
   419  1065  3452               	retlw	82	;'R'
   420  1066  3444               	retlw	68	;'D'
   421  1067  3420               	retlw	32	;' '
   422  1068  3420               	retlw	32	;' '
   423  1069  3420               	retlw	32	;' '
   424  106A  3420               	retlw	32	;' '
   425  106B  3420               	retlw	32	;' '
   426  106C  3420               	retlw	32	;' '
   427  106D  3420               	retlw	32	;' '
   428  106E  3420               	retlw	32	;' '
   429  106F  3400               	retlw	0
   430                           psect	stringtext
   431                           	
   432  1070                     STR_24:	
   433  1070  3454               	retlw	84	;'T'
   434  1071  3455               	retlw	85	;'U'
   435  1072  3452               	retlw	82	;'R'
   436  1073  344E               	retlw	78	;'N'
   437  1074  3420               	retlw	32	;' '
   438  1075  344C               	retlw	76	;'L'
   439  1076  3445               	retlw	69	;'E'
   440  1077  3446               	retlw	70	;'F'
   441  1078  3454               	retlw	84	;'T'
   442  1079  3420               	retlw	32	;' '
   443  107A  3420               	retlw	32	;' '
   444  107B  3420               	retlw	32	;' '
   445  107C  3420               	retlw	32	;' '
   446  107D  3420               	retlw	32	;' '
   447  107E  3420               	retlw	32	;' '
   448  107F  3420               	retlw	32	;' '
   449  1080  3400               	retlw	0
   450                           psect	stringtext
   451                           	
   452  1081                     STR_23:	
   453  1081  3454               	retlw	84	;'T'
   454  1082  3455               	retlw	85	;'U'
   455  1083  3452               	retlw	82	;'R'
   456  1084  344E               	retlw	78	;'N'
   457  1085  3420               	retlw	32	;' '
   458  1086  3452               	retlw	82	;'R'
   459  1087  3449               	retlw	73	;'I'
   460  1088  3447               	retlw	71	;'G'
   461  1089  3448               	retlw	72	;'H'
   462  108A  3454               	retlw	84	;'T'
   463  108B  3420               	retlw	32	;' '
   464  108C  3420               	retlw	32	;' '
   465  108D  3420               	retlw	32	;' '
   466  108E  3420               	retlw	32	;' '
   467  108F  3420               	retlw	32	;' '
   468  1090  3420               	retlw	32	;' '
   469  1091  3400               	retlw	0
   470                           psect	stringtext
   471                           	
   472  1092                     STR_20:	
   473  1092  3420               	retlw	32	;' '
   474  1093  3420               	retlw	32	;' '
   475  1094  3458               	retlw	88	;'X'
   476  1095  3442               	retlw	66	;'B'
   477  1096  3445               	retlw	69	;'E'
   478  1097  3445               	retlw	69	;'E'
   479  1098  3420               	retlw	32	;' '
   480  1099  3443               	retlw	67	;'C'
   481  109A  344F               	retlw	79	;'O'
   482  109B  344E               	retlw	78	;'N'
   483  109C  3454               	retlw	84	;'T'
   484  109D  3452               	retlw	82	;'R'
   485  109E  344F               	retlw	79	;'O'
   486  109F  344C               	retlw	76	;'L'
   487  10A0  3420               	retlw	32	;' '
   488  10A1  3420               	retlw	32	;' '
   489  10A2  3400               	retlw	0
   490                           psect	stringtext
   491                           	
   492  10A3                     STR_28:	
   493  10A3  3443               	retlw	67	;'C'
   494  10A4  346F               	retlw	111	;'o'
   495  10A5  346E               	retlw	110	;'n'
   496  10A6  3474               	retlw	116	;'t'
   497  10A7  3472               	retlw	114	;'r'
   498  10A8  346F               	retlw	111	;'o'
   499  10A9  346C               	retlw	108	;'l'
   500  10AA  346C               	retlw	108	;'l'
   501  10AB  3469               	retlw	105	;'i'
   502  10AC  346E               	retlw	110	;'n'
   503  10AD  3467               	retlw	103	;'g'
   504  10AE  3420               	retlw	32	;' '
   505  10AF  3450               	retlw	80	;'P'
   506  10B0  3452               	retlw	82	;'R'
   507  10B1  3432               	retlw	50	;'2'
   508  10B2  3433               	retlw	51	;'3'
   509  10B3  3400               	retlw	0
   510                           psect	stringtext
   511                           	
   512  10B4                     STR_21:	
   513  10B4  3446               	retlw	70	;'F'
   514  10B5  344F               	retlw	79	;'O'
   515  10B6  3452               	retlw	82	;'R'
   516  10B7  3457               	retlw	87	;'W'
   517  10B8  3441               	retlw	65	;'A'
   518  10B9  3452               	retlw	82	;'R'
   519  10BA  3444               	retlw	68	;'D'
   520  10BB  3420               	retlw	32	;' '
   521  10BC  3420               	retlw	32	;' '
   522  10BD  3420               	retlw	32	;' '
   523  10BE  3420               	retlw	32	;' '
   524  10BF  3420               	retlw	32	;' '
   525  10C0  3420               	retlw	32	;' '
   526  10C1  3420               	retlw	32	;' '
   527  10C2  3420               	retlw	32	;' '
   528  10C3  3400               	retlw	0
   529                           psect	stringtext
   530                           	
   531  10C4                     STR_29:	
   532  10C4  3420               	retlw	32	;' '
   533  10C5  3420               	retlw	32	;' '
   534  10C6  3420               	retlw	32	;' '
   535  10C7  3455               	retlw	85	;'U'
   536  10C8  3473               	retlw	115	;'s'
   537  10C9  3469               	retlw	105	;'i'
   538  10CA  346E               	retlw	110	;'n'
   539  10CB  3467               	retlw	103	;'g'
   540  10CC  3420               	retlw	32	;' '
   541  10CD  3453               	retlw	83	;'S'
   542  10CE  344B               	retlw	75	;'K'
   543  10CF  3450               	retlw	80	;'P'
   544  10D0  3453               	retlw	83	;'S'
   545  10D1  3400               	retlw	0
   546                           psect	stringtext
   547                           	
   548  10D2                     STR_30:	
   549  10D2  346E               	retlw	110	;'n'
   550  10D3  346F               	retlw	111	;'o'
   551  10D4  3474               	retlw	116	;'t'
   552  10D5  3420               	retlw	32	;' '
   553  10D6  3463               	retlw	99	;'c'
   554  10D7  346F               	retlw	111	;'o'
   555  10D8  346E               	retlw	110	;'n'
   556  10D9  346E               	retlw	110	;'n'
   557  10DA  3465               	retlw	101	;'e'
   558  10DB  3463               	retlw	99	;'c'
   559  10DC  3474               	retlw	116	;'t'
   560  10DD  3465               	retlw	101	;'e'
   561  10DE  3464               	retlw	100	;'d'
   562  10DF  3400               	retlw	0
   563                           psect	stringtext
   564                           	
   565  10E0                     STR_13:	
   566  10E0  344D               	retlw	77	;'M'
   567  10E1  3465               	retlw	101	;'e'
   568  10E2  3461               	retlw	97	;'a'
   569  10E3  3473               	retlw	115	;'s'
   570  10E4  3475               	retlw	117	;'u'
   571  10E5  3472               	retlw	114	;'r'
   572  10E6  3465               	retlw	101	;'e'
   573  10E7  3420               	retlw	32	;' '
   574  10E8  346D               	retlw	109	;'m'
   575  10E9  346F               	retlw	111	;'o'
   576  10EA  3464               	retlw	100	;'d'
   577  10EB  3465               	retlw	101	;'e'
   578  10EC  3400               	retlw	0
   579                           psect	stringtext
   580                           	
   581  10ED                     STR_1:	
   582  10ED  3453               	retlw	83	;'S'
   583  10EE  3465               	retlw	101	;'e'
   584  10EF  346C               	retlw	108	;'l'
   585  10F0  3465               	retlw	101	;'e'
   586  10F1  3463               	retlw	99	;'c'
   587  10F2  3474               	retlw	116	;'t'
   588  10F3  3420               	retlw	32	;' '
   589  10F4  346D               	retlw	109	;'m'
   590  10F5  346F               	retlw	111	;'o'
   591  10F6  3464               	retlw	100	;'d'
   592  10F7  3465               	retlw	101	;'e'
   593  10F8  3400               	retlw	0
   594                           psect	stringtext
   595                           	
   596  10F9                     STR_9:	
   597  10F9  346D               	retlw	109	;'m'
   598  10FA  345F               	retlw	95	;'_'
   599  10FB  346C               	retlw	108	;'l'
   600  10FC  3465               	retlw	101	;'e'
   601  10FD  3466               	retlw	102	;'f'
   602  10FE  3474               	retlw	116	;'t'
   603  10FF  3431               	retlw	49	;'1'
   604  1100  3420               	retlw	32	;' '
   605  1101  3420               	retlw	32	;' '
   606  1102  3420               	retlw	32	;' '
   607  1103  3400               	retlw	0
   608                           psect	stringtext
   609                           	
   610  1104                     STR_6:	
   611  1104  346D               	retlw	109	;'m'
   612  1105  345F               	retlw	95	;'_'
   613  1106  3472               	retlw	114	;'r'
   614  1107  3469               	retlw	105	;'i'
   615  1108  3467               	retlw	103	;'g'
   616  1109  3468               	retlw	104	;'h'
   617  110A  3474               	retlw	116	;'t'
   618  110B  3431               	retlw	49	;'1'
   619  110C  3420               	retlw	32	;' '
   620  110D  3420               	retlw	32	;' '
   621  110E  3400               	retlw	0
   622                           psect	stringtext
   623                           	
   624  110F                     STR_11:	
   625  110F  346D               	retlw	109	;'m'
   626  1110  345F               	retlw	95	;'_'
   627  1111  346C               	retlw	108	;'l'
   628  1112  3465               	retlw	101	;'e'
   629  1113  3466               	retlw	102	;'f'
   630  1114  3474               	retlw	116	;'t'
   631  1115  3432               	retlw	50	;'2'
   632  1116  3420               	retlw	32	;' '
   633  1117  3400               	retlw	0
   634                           psect	stringtext
   635                           	
   636  1118                     STR_5:	
   637  1118  346D               	retlw	109	;'m'
   638  1119  345F               	retlw	95	;'_'
   639  111A  3472               	retlw	114	;'r'
   640  111B  3469               	retlw	105	;'i'
   641  111C  3467               	retlw	103	;'g'
   642  111D  3468               	retlw	104	;'h'
   643  111E  3474               	retlw	116	;'t'
   644  111F  3432               	retlw	50	;'2'
   645  1120  3400               	retlw	0
   646                           psect	stringtext
   647                           	
   648  1121                     STR_18:	
   649  1121  3444               	retlw	68	;'D'
   650  1122  3469               	retlw	105	;'i'
   651  1123  3473               	retlw	115	;'s'
   652  1124  3474               	retlw	116	;'t'
   653  1125  3461               	retlw	97	;'a'
   654  1126  346E               	retlw	110	;'n'
   655  1127  3463               	retlw	99	;'c'
   656  1128  3465               	retlw	101	;'e'
   657  1129  3400               	retlw	0
   658                           psect	stringtext
   659                           	
   660  112A                     STR_3:	
   661  112A  3450               	retlw	80	;'P'
   662  112B  346F               	retlw	111	;'o'
   663  112C  3473               	retlw	115	;'s'
   664  112D  3469               	retlw	105	;'i'
   665  112E  3474               	retlw	116	;'t'
   666  112F  3469               	retlw	105	;'i'
   667  1130  346F               	retlw	111	;'o'
   668  1131  346E               	retlw	110	;'n'
   669  1132  3400               	retlw	0
   670                           psect	stringtext
   671                           	
   672  1133                     STR_12:	
   673  1133  346C               	retlw	108	;'l'
   674  1134  3465               	retlw	101	;'e'
   675  1135  3466               	retlw	102	;'f'
   676  1136  3474               	retlw	116	;'t'
   677  1137  3420               	retlw	32	;' '
   678  1138  3420               	retlw	32	;' '
   679  1139  3420               	retlw	32	;' '
   680  113A  3400               	retlw	0
   681                           psect	stringtext
   682                           	
   683  113B                     STR_4:	
   684  113B  3472               	retlw	114	;'r'
   685  113C  3469               	retlw	105	;'i'
   686  113D  3467               	retlw	103	;'g'
   687  113E  3468               	retlw	104	;'h'
   688  113F  3474               	retlw	116	;'t'
   689  1140  3420               	retlw	32	;' '
   690  1141  3420               	retlw	32	;' '
   691  1142  3400               	retlw	0
   692                           psect	stringtext
   693                           	
   694  1143                     STR_8:	
   695  1143  346D               	retlw	109	;'m'
   696  1144  3469               	retlw	105	;'i'
   697  1145  3464               	retlw	100	;'d'
   698  1146  3464               	retlw	100	;'d'
   699  1147  346C               	retlw	108	;'l'
   700  1148  3465               	retlw	101	;'e'
   701  1149  3420               	retlw	32	;' '
   702  114A  3400               	retlw	0
   703                           psect	stringtext
   704                           	
   705  114B                     STR_27:	
   706  114B  3443               	retlw	67	;'C'
   707  114C  344F               	retlw	79	;'O'
   708  114D  344D               	retlw	77	;'M'
   709  114E  344D               	retlw	77	;'M'
   710  114F  3441               	retlw	65	;'A'
   711  1150  344E               	retlw	78	;'N'
   712  1151  3444               	retlw	68	;'D'
   713  1152  3400               	retlw	0
   714                           psect	stringtext
   715                           	
   716  1153                     STR_17:	
   717  1153  3441               	retlw	65	;'A'
   718  1154  3444               	retlw	68	;'D'
   719  1155  3443               	retlw	67	;'C'
   720  1156  3420               	retlw	32	;' '
   721  1157  3400               	retlw	0
   722                           psect	stringtext
   723                           	
   724  1158                     STR_15:	
   725  1158  3450               	retlw	80	;'P'
   726  1159  3457               	retlw	87	;'W'
   727  115A  344D               	retlw	77	;'M'
   728  115B  3420               	retlw	32	;' '
   729  115C  3400               	retlw	0
   730                           psect	stringtext
   731                           	
   732  115D                     STR_16:	
   733  115D  3455               	retlw	85	;'U'
   734  115E  3441               	retlw	65	;'A'
   735  115F  3452               	retlw	82	;'R'
   736  1160  3454               	retlw	84	;'T'
   737  1161  3400               	retlw	0
   738                           psect	stringtext
   739                           	
   740  1162                     STR_14:	
   741  1162  3441               	retlw	65	;'A'
   742  1163  3444               	retlw	68	;'D'
   743  1164  3443               	retlw	67	;'C'
   744  1165  3400               	retlw	0
   745                           psect	stringtext
   746  1121                     STR_19	equ	STR_18+0
   747  104D                     STR_26	equ	STR_25+0
   748  1104                     STR_7	equ	STR_6+0
   749  10F9                     STR_10	equ	STR_9+0
   750  1068                     STR_2	equ	STR_22+9
   751                           	file	"C:\Users\Ober\AppData\Local\Temp\s1dg."
   752                           	line	#
   753                           psect cinit,class=CODE,delta=2
   754                           global start_initialization
   755  0B5F                     start_initialization:
   756                           
   757                           psect	bssCOMMON,class=COMMON,space=1
   758                           global __pbssCOMMON
   759  0070                     __pbssCOMMON:
   760  0070                     _To:
   761  0070                            ds      2
   762                           
   763  0072                     _REC:
   764  0072                            ds      1
   765                           
   766  0073                     _i:
   767  0073                            ds      1
   768                           
   769  0074                     _raw:
   770  0074                            ds      1
   771                           
   772                           psect	bssBANK0,class=BANK0,space=1
   773                           global __pbssBANK0
   774  0049                     __pbssBANK0:
   775  0049                     _data:
   776  0049                            ds      6
   777                           
   778  004F                     _T:
   779  004F                            ds      2
   780                           
   781  0051                     _TH:
   782  0051                            ds      2
   783                           
   784  0053                     _result:
   785  0053                            ds      2
   786                           
   787                           psect	dataBANK0,class=BANK0,space=1
   788                           global __pdataBANK0
   789  0055                     __pdataBANK0:
   790                           	file	"PR23.c"
   791                           	line	99
   792  0055                     _mode:
   793  0055                            ds      10
   794                           
   795                           ; Clear objects allocated to COMMON
   796                           psect cinit,class=CODE,delta=2
   797  0B5F  01F0               	clrf	((__pbssCOMMON)+0)&07Fh
   798  0B60  01F1               	clrf	((__pbssCOMMON)+1)&07Fh
   799  0B61  01F2               	clrf	((__pbssCOMMON)+2)&07Fh
   800  0B62  01F3               	clrf	((__pbssCOMMON)+3)&07Fh
   801  0B63  01F4               	clrf	((__pbssCOMMON)+4)&07Fh
   802                           ; Clear objects allocated to BANK0
   803                           psect cinit,class=CODE,delta=2
   804  0B64  01C9               	clrf	((__pbssBANK0)+0)&07Fh
   805  0B65  01CA               	clrf	((__pbssBANK0)+1)&07Fh
   806  0B66  01CB               	clrf	((__pbssBANK0)+2)&07Fh
   807  0B67  01CC               	clrf	((__pbssBANK0)+3)&07Fh
   808  0B68  01CD               	clrf	((__pbssBANK0)+4)&07Fh
   809  0B69  01CE               	clrf	((__pbssBANK0)+5)&07Fh
   810  0B6A  01CF               	clrf	((__pbssBANK0)+6)&07Fh
   811  0B6B  01D0               	clrf	((__pbssBANK0)+7)&07Fh
   812  0B6C  01D1               	clrf	((__pbssBANK0)+8)&07Fh
   813  0B6D  01D2               	clrf	((__pbssBANK0)+9)&07Fh
   814  0B6E  01D3               	clrf	((__pbssBANK0)+10)&07Fh
   815  0B6F  01D4               	clrf	((__pbssBANK0)+11)&07Fh
   816                           global btemp
   817                           psect inittext,class=CODE,delta=2
   818                           global init_fetch,btemp
   819                           ;	Called with low address in FSR and high address in W
   820  0AC4                     init_fetch:
   821  0AC4  087E               	movf btemp,w
   822  0AC5  008A               	movwf pclath
   823  0AC6  087F               	movf btemp+1,w
   824  0AC7  0082               	movwf pc
   825                           global init_ram
   826                           ;Called with:
   827                           ;	high address of idata address in btemp 
   828                           ;	low address of idata address in btemp+1 
   829                           ;	low address of data in FSR
   830                           ;	high address + 1 of data in btemp-1
   831  0AC8                     init_ram:
   832  0AC8  22C4  120A  158A   	fcall init_fetch
   833  0ACB  0080               	movwf indf,f
   834  0ACC  0A84               	incf fsr,f
   835  0ACD  0804               	movf fsr,w
   836  0ACE  067D               	xorwf btemp-1,w
   837  0ACF  1903               	btfsc status,2
   838  0AD0  3400               	retlw 0
   839  0AD1  0AFF               	incf btemp+1,f
   840  0AD2  1903               	btfsc status,2
   841  0AD3  0AFE               	incf btemp,f
   842  0AD4  2AC8               	goto init_ram
   843                           ; Initialize objects allocated to BANK0
   844                           psect cinit,class=CODE,delta=2
   845                           global init_ram, __pidataBANK0
   846  0B70  1383               	bcf	status, 7	;select IRP bank0
   847  0B71  305F               	movlw low(__pdataBANK0+10)
   848  0B72  00FD               	movwf btemp-1,f
   849  0B73  300A               	movlw high(__pidataBANK0)
   850  0B74  00FE               	movwf btemp,f
   851  0B75  308F               	movlw low(__pidataBANK0)
   852  0B76  00FF               	movwf btemp+1,f
   853  0B77  3055               	movlw low(__pdataBANK0)
   854  0B78  0084               	movwf fsr,f
   855  0B79  120A  158A  22C8   	fcall init_ram
              120A  158A         
   856                           psect cinit,class=CODE,delta=2
   857                           global end_of_initialization
   858                           
   859                           ;End of C runtime variable initialization code
   860                           
   861  0B7E                     end_of_initialization:
   862  0B7E  0183               clrf status
   863  0B7F  120A  118A  2E65   ljmp _main	;jump to C main() function
   864                           psect	cstackCOMMON,class=COMMON,space=1
   865                           global __pcstackCOMMON
   866  0075                     __pcstackCOMMON:
   867                           	global	?_init
   868  0075                     ?_init:	; 0 bytes @ 0x0
   869                           	global	?_beep
   870  0075                     ?_beep:	; 0 bytes @ 0x0
   871                           	global	?_lcd_clr
   872  0075                     ?_lcd_clr:	; 0 bytes @ 0x0
   873                           	global	?_lcd_goto
   874  0075                     ?_lcd_goto:	; 0 bytes @ 0x0
   875                           	global	?_line_follow
   876  0075                     ?_line_follow:	; 0 bytes @ 0x0
   877                           	global	?_ultrasonic
   878  0075                     ?_ultrasonic:	; 0 bytes @ 0x0
   879                           	global	?_analog_sen
   880  0075                     ?_analog_sen:	; 0 bytes @ 0x0
   881                           	global	?_wireless_xbee
   882  0075                     ?_wireless_xbee:	; 0 bytes @ 0x0
   883                           	global	?_SKPS_PScon
   884  0075                     ?_SKPS_PScon:	; 0 bytes @ 0x0
   885                           	global	?_e_pulse
   886  0075                     ?_e_pulse:	; 0 bytes @ 0x0
   887                           	global	?_stop
   888  0075                     ?_stop:	; 0 bytes @ 0x0
   889                           	global	?_forward
   890  0075                     ?_forward:	; 0 bytes @ 0x0
   891                           	global	?_backward
   892  0075                     ?_backward:	; 0 bytes @ 0x0
   893                           	global	?_read_adc
   894  0075                     ?_read_adc:	; 0 bytes @ 0x0
   895                           	global	?_right
   896  0075                     ?_right:	; 0 bytes @ 0x0
   897                           	global	?_left
   898  0075                     ?_left:	; 0 bytes @ 0x0
   899                           	global	?_isr
   900  0075                     ?_isr:	; 0 bytes @ 0x0
   901                           	global	??_isr
   902  0075                     ??_isr:	; 0 bytes @ 0x0
   903                           	global	?_main
   904  0075                     ?_main:	; 0 bytes @ 0x0
   905                           	global	?_send_config
   906  0075                     ?_send_config:	; 0 bytes @ 0x0
   907                           	global	?_send_char
   908  0075                     ?_send_char:	; 0 bytes @ 0x0
   909                           	global	?_uart_send
   910  0075                     ?_uart_send:	; 0 bytes @ 0x0
   911                           	global	?_uart_rec
   912  0075                     ?_uart_rec:	; 1 bytes @ 0x0
   913                           	global	?_skps
   914  0075                     ?_skps:	; 1 bytes @ 0x0
   915  0075                     	ds	5
   916                           psect	cstackBANK0,class=BANK0,space=1
   917                           global __pcstackBANK0
   918  0020                     __pcstackBANK0:
   919                           	global	??_stop
   920  0020                     ??_stop:	; 0 bytes @ 0x0
   921                           	global	??_forward
   922  0020                     ??_forward:	; 0 bytes @ 0x0
   923                           	global	??_backward
   924  0020                     ??_backward:	; 0 bytes @ 0x0
   925                           	global	??_right
   926  0020                     ??_right:	; 0 bytes @ 0x0
   927                           	global	??_left
   928  0020                     ??_left:	; 0 bytes @ 0x0
   929                           	global	?_delay
   930  0020                     ?_delay:	; 0 bytes @ 0x0
   931                           	global	?_delay_ms
   932  0020                     ?_delay_ms:	; 0 bytes @ 0x0
   933                           	global	??_uart_send
   934  0020                     ??_uart_send:	; 0 bytes @ 0x0
   935                           	global	??_uart_rec
   936  0020                     ??_uart_rec:	; 0 bytes @ 0x0
   937                           	global	?___wmul
   938  0020                     ?___wmul:	; 2 bytes @ 0x0
   939                           	global	?___llmod
   940  0020                     ?___llmod:	; 4 bytes @ 0x0
   941                           	global	?___lldiv
   942  0020                     ?___lldiv:	; 4 bytes @ 0x0
   943                           	global	uart_send@data
   944  0020                     uart_send@data:	; 1 bytes @ 0x0
   945                           	global	___wmul@multiplier
   946  0020                     ___wmul@multiplier:	; 2 bytes @ 0x0
   947                           	global	delay@data
   948  0020                     delay@data:	; 4 bytes @ 0x0
   949                           	global	delay_ms@data
   950  0020                     delay_ms@data:	; 4 bytes @ 0x0
   951                           	global	___llmod@divisor
   952  0020                     ___llmod@divisor:	; 4 bytes @ 0x0
   953                           	global	___lldiv@divisor
   954  0020                     ___lldiv@divisor:	; 4 bytes @ 0x0
   955  0020                     	ds	1
   956                           	global	uart_rec@temp
   957  0021                     uart_rec@temp:	; 1 bytes @ 0x1
   958  0021                     	ds	1
   959                           	global	??_skps
   960  0022                     ??_skps:	; 0 bytes @ 0x2
   961                           	global	skps@data
   962  0022                     skps@data:	; 1 bytes @ 0x2
   963                           	global	___wmul@multiplicand
   964  0022                     ___wmul@multiplicand:	; 2 bytes @ 0x2
   965  0022                     	ds	2
   966                           	global	??_delay
   967  0024                     ??_delay:	; 0 bytes @ 0x4
   968                           	global	??_delay_ms
   969  0024                     ??_delay_ms:	; 0 bytes @ 0x4
   970                           	global	??___wmul
   971  0024                     ??___wmul:	; 0 bytes @ 0x4
   972                           	global	___wmul@product
   973  0024                     ___wmul@product:	; 2 bytes @ 0x4
   974                           	global	___llmod@dividend
   975  0024                     ___llmod@dividend:	; 4 bytes @ 0x4
   976                           	global	___lldiv@dividend
   977  0024                     ___lldiv@dividend:	; 4 bytes @ 0x4
   978  0024                     	ds	4
   979                           	global	??_beep
   980  0028                     ??_beep:	; 0 bytes @ 0x8
   981                           	global	??_e_pulse
   982  0028                     ??_e_pulse:	; 0 bytes @ 0x8
   983                           	global	??_send_config
   984  0028                     ??_send_config:	; 0 bytes @ 0x8
   985                           	global	??_send_char
   986  0028                     ??_send_char:	; 0 bytes @ 0x8
   987                           	global	??___llmod
   988  0028                     ??___llmod:	; 0 bytes @ 0x8
   989                           	global	??___lldiv
   990  0028                     ??___lldiv:	; 0 bytes @ 0x8
   991                           	global	beep@count
   992  0028                     beep@count:	; 1 bytes @ 0x8
   993                           	global	send_config@data
   994  0028                     send_config@data:	; 1 bytes @ 0x8
   995                           	global	send_char@data
   996  0028                     send_char@data:	; 1 bytes @ 0x8
   997  0028                     	ds	1
   998                           	global	??_init
   999  0029                     ??_init:	; 0 bytes @ 0x9
  1000                           	global	??_lcd_clr
  1001  0029                     ??_lcd_clr:	; 0 bytes @ 0x9
  1002                           	global	?_send_string
  1003  0029                     ?_send_string:	; 0 bytes @ 0x9
  1004                           	global	??_lcd_goto
  1005  0029                     ??_lcd_goto:	; 0 bytes @ 0x9
  1006                           	global	___llmod@counter
  1007  0029                     ___llmod@counter:	; 1 bytes @ 0x9
  1008                           	global	send_string@s
  1009  0029                     send_string@s:	; 2 bytes @ 0x9
  1010                           	global	___lldiv@quotient
  1011  0029                     ___lldiv@quotient:	; 4 bytes @ 0x9
  1012  0029                     	ds	1
  1013                           	global	lcd_goto@data
  1014  002A                     lcd_goto@data:	; 1 bytes @ 0xA
  1015  002A                     	ds	1
  1016                           	global	??_send_string
  1017  002B                     ??_send_string:	; 0 bytes @ 0xB
  1018                           	global	??_line_follow
  1019  002B                     ??_line_follow:	; 0 bytes @ 0xB
  1020                           	global	??_wireless_xbee
  1021  002B                     ??_wireless_xbee:	; 0 bytes @ 0xB
  1022                           	global	??_SKPS_PScon
  1023  002B                     ??_SKPS_PScon:	; 0 bytes @ 0xB
  1024  002B                     	ds	1
  1025                           	global	line_follow@memory
  1026  002C                     line_follow@memory:	; 1 bytes @ 0xC
  1027                           	global	SKPS_PScon@up_v
  1028  002C                     SKPS_PScon@up_v:	; 1 bytes @ 0xC
  1029  002C                     	ds	1
  1030                           	global	SKPS_PScon@down_v
  1031  002D                     SKPS_PScon@down_v:	; 1 bytes @ 0xD
  1032                           	global	___lldiv@counter
  1033  002D                     ___lldiv@counter:	; 1 bytes @ 0xD
  1034  002D                     	ds	1
  1035                           	global	??_read_adc
  1036  002E                     ??_read_adc:	; 0 bytes @ 0xE
  1037                           	global	?_dis_num
  1038  002E                     ?_dis_num:	; 0 bytes @ 0xE
  1039                           	global	SKPS_PScon@left_v
  1040  002E                     SKPS_PScon@left_v:	; 1 bytes @ 0xE
  1041                           	global	dis_num@data
  1042  002E                     dis_num@data:	; 4 bytes @ 0xE
  1043  002E                     	ds	1
  1044                           	global	SKPS_PScon@right_v
  1045  002F                     SKPS_PScon@right_v:	; 1 bytes @ 0xF
  1046  002F                     	ds	3
  1047                           	global	??_dis_num
  1048  0032                     ??_dis_num:	; 0 bytes @ 0x12
  1049                           	global	read_adc@config
  1050  0032                     read_adc@config:	; 1 bytes @ 0x12
  1051  0032                     	ds	1
  1052                           	global	dis_num@hundred_thousand
  1053  0033                     dis_num@hundred_thousand:	; 1 bytes @ 0x13
  1054                           	global	read_adc@result_temp
  1055  0033                     read_adc@result_temp:	; 4 bytes @ 0x13
  1056  0033                     	ds	1
  1057                           	global	dis_num@ten_thousand
  1058  0034                     dis_num@ten_thousand:	; 1 bytes @ 0x14
  1059  0034                     	ds	1
  1060                           	global	dis_num@thousand
  1061  0035                     dis_num@thousand:	; 1 bytes @ 0x15
  1062  0035                     	ds	1
  1063                           	global	dis_num@hundred
  1064  0036                     dis_num@hundred:	; 1 bytes @ 0x16
  1065  0036                     	ds	1
  1066                           	global	dis_num@tenth
  1067  0037                     dis_num@tenth:	; 1 bytes @ 0x17
  1068                           	global	read_adc@i
  1069  0037                     read_adc@i:	; 2 bytes @ 0x17
  1070  0037                     	ds	2
  1071                           	global	??_analog_sen
  1072  0039                     ??_analog_sen:	; 0 bytes @ 0x19
  1073                           	global	?_us_value
  1074  0039                     ?_us_value:	; 2 bytes @ 0x19
  1075                           	global	analog_sen@distance
  1076  0039                     analog_sen@distance:	; 2 bytes @ 0x19
  1077  0039                     	ds	2
  1078                           	global	??_us_value
  1079  003B                     ??_us_value:	; 0 bytes @ 0x1B
  1080  003B                     	ds	4
  1081                           	global	us_value@mode
  1082  003F                     us_value@mode:	; 1 bytes @ 0x1F
  1083  003F                     	ds	1
  1084                           	global	us_value@value
  1085  0040                     us_value@value:	; 2 bytes @ 0x20
  1086  0040                     	ds	2
  1087                           	global	??_ultrasonic
  1088  0042                     ??_ultrasonic:	; 0 bytes @ 0x22
  1089  0042                     	ds	1
  1090                           	global	ultrasonic@n
  1091  0043                     ultrasonic@n:	; 1 bytes @ 0x23
  1092  0043                     	ds	1
  1093                           	global	ultrasonic@distance
  1094  0044                     ultrasonic@distance:	; 2 bytes @ 0x24
  1095  0044                     	ds	2
  1096                           	global	??_main
  1097  0046                     ??_main:	; 0 bytes @ 0x26
  1098  0046                     	ds	1
  1099                           	global	main@i
  1100  0047                     main@i:	; 1 bytes @ 0x27
  1101  0047                     	ds	1
  1102                           	global	main@m
  1103  0048                     main@m:	; 1 bytes @ 0x28
  1104  0048                     	ds	1
  1105 ;;Data sizes: Strings 281, constant 59, data 10, bss 17, persistent 0 stack 0
  1106 ;;Auto spaces:   Size  Autos    Used
  1107 ;; COMMON          14      5      10
  1108 ;; BANK0           80     41      63
  1109 ;; BANK1           80      0       0
  1110 ;; BANK3           96      0       0
  1111 ;; BANK2           96      0       0
  1112                           
  1113 ;;
  1114 ;; Pointer list with targets:
  1115                           
  1116 ;; ?_us_value	unsigned int  size(1) Largest target is 0
  1117 ;;
  1118 ;; ?___wmul	unsigned int  size(1) Largest target is 0
  1119 ;;
  1120 ;; ?___llmod	unsigned long  size(1) Largest target is 0
  1121 ;;
  1122 ;; ?___lldiv	unsigned long  size(1) Largest target is 0
  1123 ;;
  1124 ;; send_string@s	PTR const unsigned char  size(2) Largest target is 18
  1125 ;;		 -> STR_30(CODE[14]), STR_29(CODE[14]), STR_28(CODE[17]), STR_27(CODE[8]), 
  1126 ;;		 -> STR_26(CODE[18]), STR_25(CODE[18]), STR_24(CODE[17]), STR_23(CODE[17]), 
  1127 ;;		 -> STR_22(CODE[17]), STR_21(CODE[16]), STR_20(CODE[17]), STR_19(CODE[9]), 
  1128 ;;		 -> STR_18(CODE[9]), STR_17(CODE[5]), STR_16(CODE[5]), STR_15(CODE[5]), 
  1129 ;;		 -> STR_14(CODE[4]), STR_13(CODE[13]), STR_12(CODE[8]), STR_11(CODE[9]), 
  1130 ;;		 -> STR_10(CODE[11]), STR_9(CODE[11]), STR_8(CODE[8]), STR_7(CODE[11]), 
  1131 ;;		 -> STR_6(CODE[11]), STR_5(CODE[9]), STR_4(CODE[8]), STR_3(CODE[9]), 
  1132 ;;		 -> STR_2(CODE[8]), STR_1(CODE[12]), SKPS(CODE[7]), XB(CODE[9]), 
  1133 ;;		 -> AS(CODE[16]), US(CODE[13]), line(CODE[14]), 
  1134 ;;
  1135 ;; mode	PTR const unsigned char [5] size(2) Largest target is 16
  1136 ;;		 -> SKPS(CODE[7]), XB(CODE[9]), AS(CODE[16]), US(CODE[13]), 
  1137 ;;		 -> line(CODE[14]), 
  1138 ;;
  1139                           
  1140                           
  1141 ;;
  1142 ;; Critical Paths under _main in COMMON
  1143 ;;
  1144 ;;   None.
  1145 ;;
  1146 ;; Critical Paths under _isr in COMMON
  1147 ;;
  1148 ;;   None.
  1149 ;;
  1150 ;; Critical Paths under _main in BANK0
  1151 ;;
  1152 ;;   _main->_ultrasonic
  1153 ;;   _ultrasonic->_us_value
  1154 ;;   _us_value->_read_adc
  1155 ;;   _SKPS_PScon->_lcd_goto
  1156 ;;   _SKPS_PScon->_send_string
  1157 ;;   _wireless_xbee->_lcd_goto
  1158 ;;   _wireless_xbee->_send_string
  1159 ;;   _analog_sen->_read_adc
  1160 ;;   _line_follow->_send_string
  1161 ;;   _line_follow->_lcd_goto
  1162 ;;   _dis_num->___lldiv
  1163 ;;   _lcd_goto->_send_config
  1164 ;;   _send_string->_send_char
  1165 ;;   _lcd_clr->_send_config
  1166 ;;   _init->_send_config
  1167 ;;   _send_char->_delay_ms
  1168 ;;   _send_config->_delay_ms
  1169 ;;   _e_pulse->_delay_ms
  1170 ;;   _beep->_delay_ms
  1171 ;;   _read_adc->___lldiv
  1172 ;;   _skps->_uart_rec
  1173 ;;
  1174 ;; Critical Paths under _isr in BANK0
  1175 ;;
  1176 ;;   None.
  1177 ;;
  1178 ;; Critical Paths under _main in BANK1
  1179 ;;
  1180 ;;   None.
  1181 ;;
  1182 ;; Critical Paths under _isr in BANK1
  1183 ;;
  1184 ;;   None.
  1185 ;;
  1186 ;; Critical Paths under _main in BANK3
  1187 ;;
  1188 ;;   None.
  1189 ;;
  1190 ;; Critical Paths under _isr in BANK3
  1191 ;;
  1192 ;;   None.
  1193 ;;
  1194 ;; Critical Paths under _main in BANK2
  1195 ;;
  1196 ;;   None.
  1197 ;;
  1198 ;; Critical Paths under _isr in BANK2
  1199 ;;
  1200 ;;   None.
  1201                           
  1202 ;;
  1203 ;;Main: autosize = 0, tempsize = 1, incstack = 0, save=0
  1204 ;;
  1205                           
  1206 ;;
  1207 ;;Call Graph Tables:
  1208 ;;
  1209 ;; ---------------------------------------------------------------------------------
  1210 ;; (Depth) Function   	        Calls       Base Space   Used Autos Params    Refs
  1211 ;; ---------------------------------------------------------------------------------
  1212 ;; (0) _main                                                 3     3      0    9000
  1213 ;;                                             38 BANK0      3     3      0
  1214 ;;                               _init
  1215 ;;                               _beep
  1216 ;;                            _lcd_clr
  1217 ;;                        _send_string
  1218 ;;                           _lcd_goto
  1219 ;;                        _line_follow
  1220 ;;                         _ultrasonic
  1221 ;;                         _analog_sen
  1222 ;;                      _wireless_xbee
  1223 ;;                         _SKPS_PScon
  1224 ;; ---------------------------------------------------------------------------------
  1225 ;; (1) _ultrasonic                                           4     4      0    2881
  1226 ;;                                             34 BANK0      4     4      0
  1227 ;;                            _lcd_clr
  1228 ;;                        _send_string
  1229 ;;                           _lcd_goto
  1230 ;;                           _us_value
  1231 ;;                            _dis_num
  1232 ;;                            _forward
  1233 ;;                               _stop
  1234 ;;                           _backward
  1235 ;; ---------------------------------------------------------------------------------
  1236 ;; (2) _us_value                                             9     7      2    1058
  1237 ;;                                             25 BANK0      9     7      2
  1238 ;;                           _read_adc
  1239 ;;                             ___wmul
  1240 ;;                           _lcd_goto
  1241 ;;                        _send_string
  1242 ;; ---------------------------------------------------------------------------------
  1243 ;; (1) _SKPS_PScon                                           5     5      0    1757
  1244 ;;                                             11 BANK0      5     5      0
  1245 ;;                               _stop
  1246 ;;                            _lcd_clr
  1247 ;;                           _lcd_goto
  1248 ;;                        _send_string
  1249 ;;                               _skps
  1250 ;;                            _forward
  1251 ;;                           _backward
  1252 ;;                               _left
  1253 ;;                              _right
  1254 ;; ---------------------------------------------------------------------------------
  1255 ;; (1) _wireless_xbee                                        0     0      0     533
  1256 ;;                            _lcd_clr
  1257 ;;                           _lcd_goto
  1258 ;;                        _send_string
  1259 ;;                            _forward
  1260 ;;                           _backward
  1261 ;;                              _right
  1262 ;;                               _left
  1263 ;;                               _stop
  1264 ;; ---------------------------------------------------------------------------------
  1265 ;; (1) _analog_sen                                           2     2      0    2163
  1266 ;;                                             25 BANK0      2     2      0
  1267 ;;                            _lcd_clr
  1268 ;;                        _send_string
  1269 ;;                           _lcd_goto
  1270 ;;                           _read_adc
  1271 ;;                            _dis_num
  1272 ;;                           _backward
  1273 ;;                               _stop
  1274 ;;                            _forward
  1275 ;; ---------------------------------------------------------------------------------
  1276 ;; (1) _line_follow                                          2     2      0     811
  1277 ;;                                             11 BANK0      2     2      0
  1278 ;;                            _lcd_clr
  1279 ;;                        _send_string
  1280 ;;                            _forward
  1281 ;;                           _lcd_goto
  1282 ;; ---------------------------------------------------------------------------------
  1283 ;; (2) _dis_num                                             10     6      4    1092
  1284 ;;                                             14 BANK0     10     6      4
  1285 ;;                            ___lldiv
  1286 ;;                            ___llmod
  1287 ;;                          _send_char
  1288 ;; ---------------------------------------------------------------------------------
  1289 ;; (2) _lcd_goto                                             2     2      0     220
  1290 ;;                                              9 BANK0      2     2      0
  1291 ;;                        _send_config
  1292 ;; ---------------------------------------------------------------------------------
  1293 ;; (2) _send_string                                          2     0      2     189
  1294 ;;                                              9 BANK0      2     0      2
  1295 ;;                          _send_char
  1296 ;; ---------------------------------------------------------------------------------
  1297 ;; (2) _lcd_clr                                              0     0      0     124
  1298 ;;                        _send_config
  1299 ;;                           _delay_ms
  1300 ;; ---------------------------------------------------------------------------------
  1301 ;; (1) _init                                                 0     0      0     124
  1302 ;;                           _delay_ms
  1303 ;;                        _send_config
  1304 ;;                               _stop
  1305 ;; ---------------------------------------------------------------------------------
  1306 ;; (3) _send_char                                            1     1      0      93
  1307 ;;                                              8 BANK0      1     1      0
  1308 ;;                           _delay_ms
  1309 ;;                            _e_pulse
  1310 ;; ---------------------------------------------------------------------------------
  1311 ;; (3) _send_config                                          1     1      0      93
  1312 ;;                                              8 BANK0      1     1      0
  1313 ;;                           _delay_ms
  1314 ;;                            _e_pulse
  1315 ;; ---------------------------------------------------------------------------------
  1316 ;; (4) _e_pulse                                              0     0      0      31
  1317 ;;                           _delay_ms
  1318 ;; ---------------------------------------------------------------------------------
  1319 ;; (1) _beep                                                 1     1      0      62
  1320 ;;                                              8 BANK0      1     1      0
  1321 ;;                           _delay_ms
  1322 ;; ---------------------------------------------------------------------------------
  1323 ;; (2) _read_adc                                            11    11      0     442
  1324 ;;                                             14 BANK0     11    11      0
  1325 ;;                              _delay
  1326 ;;                            ___lldiv
  1327 ;; ---------------------------------------------------------------------------------
  1328 ;; (2) _skps                                                 1     1      0      96
  1329 ;;                                              2 BANK0      1     1      0
  1330 ;;                          _uart_send
  1331 ;;                           _uart_rec
  1332 ;; ---------------------------------------------------------------------------------
  1333 ;; (5) _delay_ms                                             8     4      4      31
  1334 ;;                                              0 BANK0      8     4      4
  1335 ;; ---------------------------------------------------------------------------------
  1336 ;; (3) ___lldiv                                             14     6      8     241
  1337 ;;                                              0 BANK0     14     6      8
  1338 ;; ---------------------------------------------------------------------------------
  1339 ;; (3) ___llmod                                             10     2      8     232
  1340 ;;                                              0 BANK0     10     2      8
  1341 ;; ---------------------------------------------------------------------------------
  1342 ;; (3) ___wmul                                               6     2      4     136
  1343 ;;                                              0 BANK0      6     2      4
  1344 ;; ---------------------------------------------------------------------------------
  1345 ;; (2) _left                                                 0     0      0       0
  1346 ;; ---------------------------------------------------------------------------------
  1347 ;; (2) _right                                                0     0      0       0
  1348 ;; ---------------------------------------------------------------------------------
  1349 ;; (2) _backward                                             0     0      0       0
  1350 ;; ---------------------------------------------------------------------------------
  1351 ;; (2) _forward                                              0     0      0       0
  1352 ;; ---------------------------------------------------------------------------------
  1353 ;; (2) _stop                                                 0     0      0       0
  1354 ;; ---------------------------------------------------------------------------------
  1355 ;; (3) _uart_rec                                             2     2      0      34
  1356 ;;                                              0 BANK0      2     2      0
  1357 ;; ---------------------------------------------------------------------------------
  1358 ;; (3) _uart_send                                            1     1      0      31
  1359 ;;                                              0 BANK0      1     1      0
  1360 ;; ---------------------------------------------------------------------------------
  1361 ;; (3) _delay                                                8     4      4      65
  1362 ;;                                              0 BANK0      8     4      4
  1363 ;; ---------------------------------------------------------------------------------
  1364 ;; Estimated maximum stack depth 5
  1365 ;; ---------------------------------------------------------------------------------
  1366 ;; (Depth) Function   	        Calls       Base Space   Used Autos Params    Refs
  1367 ;; ---------------------------------------------------------------------------------
  1368 ;; (7) _isr                                                  5     5      0       0
  1369 ;;                                              0 COMMON     5     5      0
  1370 ;; ---------------------------------------------------------------------------------
  1371 ;; Estimated maximum stack depth 7
  1372 ;; ---------------------------------------------------------------------------------
  1373                           
  1374 ;; Call Graph Graphs:
  1375                           
  1376 ;; _main (ROOT)
  1377 ;;   _init
  1378 ;;     _delay_ms
  1379 ;;     _send_config
  1380 ;;       _delay_ms
  1381 ;;       _e_pulse
  1382 ;;         _delay_ms
  1383 ;;     _stop
  1384 ;;   _beep
  1385 ;;     _delay_ms
  1386 ;;   _lcd_clr
  1387 ;;     _send_config
  1388 ;;       _delay_ms
  1389 ;;       _e_pulse
  1390 ;;         _delay_ms
  1391 ;;     _delay_ms
  1392 ;;   _send_string
  1393 ;;     _send_char
  1394 ;;       _delay_ms
  1395 ;;       _e_pulse
  1396 ;;         _delay_ms
  1397 ;;   _lcd_goto
  1398 ;;     _send_config
  1399 ;;       _delay_ms
  1400 ;;       _e_pulse
  1401 ;;         _delay_ms
  1402 ;;   _line_follow
  1403 ;;     _lcd_clr
  1404 ;;       _send_config
  1405 ;;         _delay_ms
  1406 ;;         _e_pulse
  1407 ;;           _delay_ms
  1408 ;;       _delay_ms
  1409 ;;     _send_string
  1410 ;;       _send_char
  1411 ;;         _delay_ms
  1412 ;;         _e_pulse
  1413 ;;           _delay_ms
  1414 ;;     _forward
  1415 ;;     _lcd_goto
  1416 ;;       _send_config
  1417 ;;         _delay_ms
  1418 ;;         _e_pulse
  1419 ;;           _delay_ms
  1420 ;;   _ultrasonic
  1421 ;;     _lcd_clr
  1422 ;;       _send_config
  1423 ;;         _delay_ms
  1424 ;;         _e_pulse
  1425 ;;           _delay_ms
  1426 ;;       _delay_ms
  1427 ;;     _send_string
  1428 ;;       _send_char
  1429 ;;         _delay_ms
  1430 ;;         _e_pulse
  1431 ;;           _delay_ms
  1432 ;;     _lcd_goto
  1433 ;;       _send_config
  1434 ;;         _delay_ms
  1435 ;;         _e_pulse
  1436 ;;           _delay_ms
  1437 ;;     _us_value
  1438 ;;       _read_adc
  1439 ;;         _delay
  1440 ;;         ___lldiv
  1441 ;;       ___wmul
  1442 ;;       _lcd_goto
  1443 ;;         _send_config
  1444 ;;           _delay_ms
  1445 ;;           _e_pulse
  1446 ;;             _delay_ms
  1447 ;;       _send_string
  1448 ;;         _send_char
  1449 ;;           _delay_ms
  1450 ;;           _e_pulse
  1451 ;;             _delay_ms
  1452 ;;     _dis_num
  1453 ;;       ___lldiv
  1454 ;;       ___llmod
  1455 ;;       _send_char
  1456 ;;         _delay_ms
  1457 ;;         _e_pulse
  1458 ;;           _delay_ms
  1459 ;;     _forward
  1460 ;;     _stop
  1461 ;;     _backward
  1462 ;;   _analog_sen
  1463 ;;     _lcd_clr
  1464 ;;       _send_config
  1465 ;;         _delay_ms
  1466 ;;         _e_pulse
  1467 ;;           _delay_ms
  1468 ;;       _delay_ms
  1469 ;;     _send_string
  1470 ;;       _send_char
  1471 ;;         _delay_ms
  1472 ;;         _e_pulse
  1473 ;;           _delay_ms
  1474 ;;     _lcd_goto
  1475 ;;       _send_config
  1476 ;;         _delay_ms
  1477 ;;         _e_pulse
  1478 ;;           _delay_ms
  1479 ;;     _read_adc
  1480 ;;       _delay
  1481 ;;       ___lldiv
  1482 ;;     _dis_num
  1483 ;;       ___lldiv
  1484 ;;       ___llmod
  1485 ;;       _send_char
  1486 ;;         _delay_ms
  1487 ;;         _e_pulse
  1488 ;;           _delay_ms
  1489 ;;     _backward
  1490 ;;     _stop
  1491 ;;     _forward
  1492 ;;   _wireless_xbee
  1493 ;;     _lcd_clr
  1494 ;;       _send_config
  1495 ;;         _delay_ms
  1496 ;;         _e_pulse
  1497 ;;           _delay_ms
  1498 ;;       _delay_ms
  1499 ;;     _lcd_goto
  1500 ;;       _send_config
  1501 ;;         _delay_ms
  1502 ;;         _e_pulse
  1503 ;;           _delay_ms
  1504 ;;     _send_string
  1505 ;;       _send_char
  1506 ;;         _delay_ms
  1507 ;;         _e_pulse
  1508 ;;           _delay_ms
  1509 ;;     _forward
  1510 ;;     _backward
  1511 ;;     _right
  1512 ;;     _left
  1513 ;;     _stop
  1514 ;;   _SKPS_PScon
  1515 ;;     _stop
  1516 ;;     _lcd_clr
  1517 ;;       _send_config
  1518 ;;         _delay_ms
  1519 ;;         _e_pulse
  1520 ;;           _delay_ms
  1521 ;;       _delay_ms
  1522 ;;     _lcd_goto
  1523 ;;       _send_config
  1524 ;;         _delay_ms
  1525 ;;         _e_pulse
  1526 ;;           _delay_ms
  1527 ;;     _send_string
  1528 ;;       _send_char
  1529 ;;         _delay_ms
  1530 ;;         _e_pulse
  1531 ;;           _delay_ms
  1532 ;;     _skps
  1533 ;;       _uart_send
  1534 ;;       _uart_rec
  1535 ;;     _forward
  1536 ;;     _backward
  1537 ;;     _left
  1538 ;;     _right
  1539 ;;
  1540 ;; _isr (ROOT)
  1541 ;;
  1542                           
  1543 ;; Address spaces:
  1544                           
  1545 ;;Name               Size   Autos  Total    Cost      Usage
  1546 ;;BANK3               60      0       0       9        0.0%
  1547 ;;BITBANK3            60      0       0       8        0.0%
  1548 ;;SFR3                 0      0       0       4        0.0%
  1549 ;;BITSFR3              0      0       0       4        0.0%
  1550 ;;BANK2               60      0       0      11        0.0%
  1551 ;;BITBANK2            60      0       0      10        0.0%
  1552 ;;SFR2                 0      0       0       5        0.0%
  1553 ;;BITSFR2              0      0       0       5        0.0%
  1554 ;;SFR1                 0      0       0       2        0.0%
  1555 ;;BITSFR1              0      0       0       2        0.0%
  1556 ;;BANK1               50      0       0       7        0.0%
  1557 ;;BITBANK1            50      0       0       6        0.0%
  1558 ;;CODE                 0      0       0       0        0.0%
  1559 ;;DATA                 0      0      4F      12        0.0%
  1560 ;;ABS                  0      0      49       3        0.0%
  1561 ;;NULL                 0      0       0       0        0.0%
  1562 ;;STACK                0      0       6       2        0.0%
  1563 ;;BANK0               50     29      3F       5       78.8%
  1564 ;;BITBANK0            50      0       0       4        0.0%
  1565 ;;SFR0                 0      0       0       1        0.0%
  1566 ;;BITSFR0              0      0       0       1        0.0%
  1567 ;;COMMON               E      5       A       1       71.4%
  1568 ;;BITCOMMON            E      0       0       0        0.0%
  1569 ;;EEDATA             100      0       0       0        0.0%
  1570                           
  1571                           	global	_main
  1572                           psect	maintext,global,class=CODE,delta=2
  1573                           global __pmaintext
  1574  0665                     __pmaintext:
  1575                           
  1576 ;; *************** function _main *****************
  1577 ;; Defined at:
  1578 ;;		line 182 in file "PR23.c"
  1579 ;; Parameters:    Size  Location     Type
  1580 ;;		None
  1581 ;; Auto vars:     Size  Location     Type
  1582 ;;  m               1   40[BANK0 ] unsigned char 
  1583 ;;  i               1   39[BANK0 ] unsigned char 
  1584 ;; Return value:  Size  Location     Type
  1585 ;;		None               void
  1586 ;; Registers used:
  1587 ;;		wreg, fsr0l, fsr0h, status,2, status,0, btemp+1, pclath, cstack
  1588 ;; Tracked objects:
  1589 ;;		On entry : 17F/0
  1590 ;;		On exit  : 0/0
  1591 ;;		Unchanged: 0/0
  1592 ;; Data sizes:     COMMON   BANK0   BANK1   BANK3   BANK2
  1593 ;;      Params:         0       0       0       0       0
  1594 ;;      Locals:         0       2       0       0       0
  1595 ;;      Temps:          0       1       0       0       0
  1596 ;;      Totals:         0       3       0       0       0
  1597 ;;Total ram usage:        3 bytes
  1598 ;; Hardware stack levels required when called:    7
  1599 ;; This function calls:
  1600 ;;		_init
  1601 ;;		_beep
  1602 ;;		_lcd_clr
  1603 ;;		_send_string
  1604 ;;		_lcd_goto
  1605 ;;		_line_follow
  1606 ;;		_ultrasonic
  1607 ;;		_analog_sen
  1608 ;;		_wireless_xbee
  1609 ;;		_SKPS_PScon
  1610 ;; This function is called by:
  1611 ;;		Startup code after reset
  1612 ;; This function uses a non-reentrant model
  1613 ;;
  1614                           psect	maintext
  1615                           	file	"PR23.c"
  1616                           	line	182
  1617                           	global	__size_of_main
  1618  00CD                     	__size_of_main	equ	__end_of_main-_main
  1619                           	
  1620  0665                     _main:	
  1621                           	opt	stack 1
  1622                           ; Regs used in _main: [wreg-fsr0h+status,2+status,0+btemp+1+pclath+cstack]
  1623                           	line	184
  1624                           	
  1625  0665                     l4743:	
  1626                           ;PR23.c: 184: unsigned char m=0,i =0;
  1627  0665  1003               	clrc
  1628  0666  3000               	movlw	0
  1629  0667  1803               	btfsc	status,0
  1630  0668  3001               	movlw	1
  1631  0669  1283               	bcf	status, 5	;RP0=0, select bank0
  1632  066A  1303               	bcf	status, 6	;RP1=0, select bank0
  1633  066B  00C8               	movwf	(main@m)
  1634  066C  1003               	clrc
  1635  066D  3000               	movlw	0
  1636  066E  1803               	btfsc	status,0
  1637  066F  3001               	movlw	1
  1638  0670  00C7               	movwf	(main@i)
  1639                           	line	185
  1640                           	
  1641  0671                     l4745:	
  1642                           ;PR23.c: 185: init();
  1643  0671  120A  158A  2649   	fcall	_init
              120A  118A         
  1644                           	line	186
  1645                           	
  1646  0676                     l4747:	
  1647                           ;PR23.c: 186: beep(2);
  1648  0676  3002               	movlw	(02h)
  1649  0677  120A  158A  23B0   	fcall	_beep
              120A  118A         
  1650                           	line	187
  1651                           	
  1652  067C                     l4749:	
  1653                           ;PR23.c: 187: RB5 = 1;
  1654  067C  1283               	bcf	status, 5	;RP0=0, select bank0
  1655  067D  1303               	bcf	status, 6	;RP1=0, select bank0
  1656  067E  1686               	bsf	(53/8),(53)&7
  1657                           	line	188
  1658                           	
  1659  067F                     l4751:	
  1660                           ;PR23.c: 188: lcd_clr();
  1661  067F  120A  158A  22D5   	fcall	_lcd_clr
              120A  118A         
  1662                           	line	189
  1663                           	
  1664  0684                     l4753:	
  1665                           ;PR23.c: 189: send_string("Select mode");
  1666  0684  30ED               	movlw	low(STR_1|8000h)
  1667  0685  1283               	bcf	status, 5	;RP0=0, select bank0
  1668  0686  1303               	bcf	status, 6	;RP1=0, select bank0
  1669  0687  00A9               	movwf	(?_send_string)
  1670  0688  3090               	movlw	high(STR_1|8000h)
  1671  0689  00AA               	movwf	((?_send_string))+1
  1672  068A  120A  158A  2411   	fcall	_send_string
              120A  118A         
  1673                           	line	190
  1674                           	
  1675  068F                     l4755:	
  1676                           ;PR23.c: 190: lcd_goto(20);
  1677  068F  3014               	movlw	(014h)
  1678  0690  120A  158A  233E   	fcall	_lcd_goto
              120A  118A         
  1679                           	line	191
  1680                           	
  1681  0695                     l4757:	
  1682                           ;PR23.c: 191: send_string(mode[m]);
  1683  0695  1283               	bcf	status, 5	;RP0=0, select bank0
  1684  0696  1303               	bcf	status, 6	;RP1=0, select bank0
  1685  0697  0848               	movf	(main@m),w
  1686  0698  00C6               	movwf	(??_main+0)+0
  1687  0699  0746               	addwf	(??_main+0)+0,w
  1688  069A  3E55               	addlw	_mode&0ffh
  1689  069B  0084               	movwf	fsr0
  1690  069C  1383               	bcf	status, 7	;select IRP bank0
  1691  069D  0800               	movf	indf,w
  1692  069E  00A9               	movwf	(?_send_string)
  1693  069F  0A84               	incf	fsr0,f
  1694  06A0  0800               	movf	indf,w
  1695  06A1  00AA               	movwf	(?_send_string+1)
  1696  06A2  120A  158A  2411   	fcall	_send_string
              120A  118A         
  1697                           	line	192
  1698                           	
  1699  06A7                     l4759:	
  1700                           ;PR23.c: 192: RE2 = 0;
  1701  06A7  1283               	bcf	status, 5	;RP0=0, select bank0
  1702  06A8  1303               	bcf	status, 6	;RP1=0, select bank0
  1703  06A9  1109               	bcf	(74/8),(74)&7
  1704  06AA  2EAB               	goto	l4761
  1705                           	line	194
  1706                           ;PR23.c: 194: while(1)
  1707                           	
  1708  06AB                     l638:	
  1709                           	line	196
  1710                           	
  1711  06AB                     l4761:	
  1712                           ;PR23.c: 195: {
  1713                           ;PR23.c: 196: if( !RE0)
  1714  06AB  1283               	bcf	status, 5	;RP0=0, select bank0
  1715  06AC  1303               	bcf	status, 6	;RP1=0, select bank0
  1716  06AD  1809               	btfsc	(72/8),(72)&7
  1717  06AE  2EB0               	goto	u5801
  1718  06AF  2EB1               	goto	u5800
  1719  06B0                     u5801:
  1720  06B0  2EEC               	goto	l4777
  1721  06B1                     u5800:
  1722  06B1  2EB3               	goto	l640
  1723                           	line	198
  1724                           	
  1725  06B2                     l4763:	
  1726                           ;PR23.c: 197: {
  1727                           ;PR23.c: 198: while(!RE0);
  1728  06B2  2EB3               	goto	l640
  1729                           	
  1730  06B3                     l641:	
  1731                           	
  1732  06B3                     l640:	
  1733  06B3  1C09               	btfss	(72/8),(72)&7
  1734  06B4  2EB6               	goto	u5811
  1735  06B5  2EB7               	goto	u5810
  1736  06B6                     u5811:
  1737  06B6  2EB3               	goto	l640
  1738  06B7                     u5810:
  1739  06B7  2EB8               	goto	l4765
  1740                           	
  1741  06B8                     l642:	
  1742                           	line	199
  1743                           	
  1744  06B8                     l4765:	
  1745                           ;PR23.c: 199: m++;
  1746  06B8  3001               	movlw	(01h)
  1747  06B9  00C6               	movwf	(??_main+0)+0
  1748  06BA  0846               	movf	(??_main+0)+0,w
  1749  06BB  07C8               	addwf	(main@m),f
  1750                           	line	200
  1751                           	
  1752  06BC                     l4767:	
  1753                           ;PR23.c: 200: if ( m > 4) m = 0;
  1754  06BC  3005               	movlw	(05h)
  1755  06BD  0248               	subwf	(main@m),w
  1756  06BE  1C03               	skipc
  1757  06BF  2EC1               	goto	u5821
  1758  06C0  2EC2               	goto	u5820
  1759  06C1                     u5821:
  1760  06C1  2EC8               	goto	l4771
  1761  06C2                     u5820:
  1762                           	
  1763  06C2                     l4769:	
  1764  06C2  1003               	clrc
  1765  06C3  3000               	movlw	0
  1766  06C4  1803               	btfsc	status,0
  1767  06C5  3001               	movlw	1
  1768  06C6  00C8               	movwf	(main@m)
  1769  06C7  2EC8               	goto	l4771
  1770                           	
  1771  06C8                     l643:	
  1772                           	line	201
  1773                           	
  1774  06C8                     l4771:	
  1775                           ;PR23.c: 201: lcd_goto(20);
  1776  06C8  3014               	movlw	(014h)
  1777  06C9  120A  158A  233E   	fcall	_lcd_goto
              120A  118A         
  1778                           	line	202
  1779                           	
  1780  06CE                     l4773:	
  1781                           ;PR23.c: 202: send_string(mode[m]);
  1782  06CE  1283               	bcf	status, 5	;RP0=0, select bank0
  1783  06CF  1303               	bcf	status, 6	;RP1=0, select bank0
  1784  06D0  0848               	movf	(main@m),w
  1785  06D1  00C6               	movwf	(??_main+0)+0
  1786  06D2  0746               	addwf	(??_main+0)+0,w
  1787  06D3  3E55               	addlw	_mode&0ffh
  1788  06D4  0084               	movwf	fsr0
  1789  06D5  1383               	bcf	status, 7	;select IRP bank0
  1790  06D6  0800               	movf	indf,w
  1791  06D7  00A9               	movwf	(?_send_string)
  1792  06D8  0A84               	incf	fsr0,f
  1793  06D9  0800               	movf	indf,w
  1794  06DA  00AA               	movwf	(?_send_string+1)
  1795  06DB  120A  158A  2411   	fcall	_send_string
              120A  118A         
  1796                           	line	203
  1797                           	
  1798  06E0                     l4775:	
  1799                           ;PR23.c: 203: send_string("       ");
  1800  06E0  3068               	movlw	low(STR_2|8000h)
  1801  06E1  1283               	bcf	status, 5	;RP0=0, select bank0
  1802  06E2  1303               	bcf	status, 6	;RP1=0, select bank0
  1803  06E3  00A9               	movwf	(?_send_string)
  1804  06E4  3090               	movlw	high(STR_2|8000h)
  1805  06E5  00AA               	movwf	((?_send_string))+1
  1806  06E6  120A  158A  2411   	fcall	_send_string
              120A  118A         
  1807  06EB  2EEC               	goto	l4777
  1808                           	line	204
  1809                           	
  1810  06EC                     l639:	
  1811                           	line	206
  1812                           	
  1813  06EC                     l4777:	
  1814                           ;PR23.c: 204: }
  1815                           ;PR23.c: 206: if (!RE1)
  1816  06EC  1283               	bcf	status, 5	;RP0=0, select bank0
  1817  06ED  1303               	bcf	status, 6	;RP1=0, select bank0
  1818  06EE  1889               	btfsc	(73/8),(73)&7
  1819  06EF  2EF1               	goto	u5831
  1820  06F0  2EF2               	goto	u5830
  1821  06F1                     u5831:
  1822  06F1  2EAB               	goto	l4761
  1823  06F2                     u5830:
  1824  06F2  2EF4               	goto	l645
  1825                           	line	208
  1826                           	
  1827  06F3                     l4779:	
  1828                           ;PR23.c: 207: {
  1829                           ;PR23.c: 208: while(!RE1);
  1830  06F3  2EF4               	goto	l645
  1831                           	
  1832  06F4                     l646:	
  1833                           	
  1834  06F4                     l645:	
  1835  06F4  1C89               	btfss	(73/8),(73)&7
  1836  06F5  2EF7               	goto	u5841
  1837  06F6  2EF8               	goto	u5840
  1838  06F7                     u5841:
  1839  06F7  2EF4               	goto	l645
  1840  06F8                     u5840:
  1841  06F8  2F19               	goto	l4791
  1842                           	
  1843  06F9                     l647:	
  1844                           	line	209
  1845                           ;PR23.c: 209: switch(m)
  1846  06F9  2F19               	goto	l4791
  1847                           	line	211
  1848                           ;PR23.c: 210: {
  1849                           ;PR23.c: 211: case 0 :
  1850                           	
  1851  06FA                     l649:	
  1852                           	line	212
  1853                           	
  1854  06FA                     l4781:	
  1855                           ;PR23.c: 212: line_follow();
  1856  06FA  120A  118A  2015   	fcall	_line_follow
              120A  118A         
  1857                           	line	213
  1858                           ;PR23.c: 213: break;
  1859  06FF  2EAB               	goto	l4761
  1860                           	line	214
  1861                           ;PR23.c: 214: case 1 :
  1862                           	
  1863  0700                     l651:	
  1864                           	line	215
  1865                           	
  1866  0700                     l4783:	
  1867                           ;PR23.c: 215: ultrasonic();
  1868  0700  120A  118A  254C   	fcall	_ultrasonic
              120A  118A         
  1869                           	line	216
  1870                           ;PR23.c: 216: break;
  1871  0705  2EAB               	goto	l4761
  1872                           	line	217
  1873                           ;PR23.c: 217: case 2 :
  1874                           	
  1875  0706                     l652:	
  1876                           	line	218
  1877                           	
  1878  0706                     l4785:	
  1879                           ;PR23.c: 218: analog_sen();
  1880  0706  120A  158A  26D7   	fcall	_analog_sen
              120A  118A         
  1881                           	line	219
  1882                           ;PR23.c: 219: break;
  1883  070B  2EAB               	goto	l4761
  1884                           	line	220
  1885                           ;PR23.c: 220: case 3 :
  1886                           	
  1887  070C                     l653:	
  1888                           	line	221
  1889                           	
  1890  070C                     l4787:	
  1891                           ;PR23.c: 221: wireless_xbee();
  1892  070C  120A  118A  2732   	fcall	_wireless_xbee
              120A  118A         
  1893                           	line	222
  1894                           ;PR23.c: 222: break;
  1895  0711  2EAB               	goto	l4761
  1896                           	line	223
  1897                           ;PR23.c: 223: case 4 :
  1898                           	
  1899  0712                     l654:	
  1900                           	line	224
  1901                           	
  1902  0712                     l4789:	
  1903                           ;PR23.c: 224: SKPS_PScon();
  1904  0712  120A  118A  2265   	fcall	_SKPS_PScon
              120A  118A         
  1905                           	line	225
  1906                           ;PR23.c: 225: break;
  1907  0717  2EAB               	goto	l4761
  1908                           	line	226
  1909                           ;PR23.c: 226: default : ;
  1910                           	
  1911  0718                     l655:	
  1912                           	line	227
  1913                           ;PR23.c: 227: }
  1914  0718  2EAB               	goto	l4761
  1915                           	line	209
  1916                           	
  1917  0719                     l648:	
  1918                           	
  1919  0719                     l4791:	
  1920  0719  1283               	bcf	status, 5	;RP0=0, select bank0
  1921  071A  1303               	bcf	status, 6	;RP1=0, select bank0
  1922  071B  0848               	movf	(main@m),w
  1923                           	; Switch size 1, requested type "space"
  1924                           ; Number of cases is 5, Range of values is 0 to 4
  1925                           ; switch strategies available:
  1926                           ; Name         Bytes Cycles
  1927                           ; simple_byte    16     9 (average)
  1928                           ; direct_byte    34    19 (fixed)
  1929                           ;	Chosen strategy is simple_byte
  1930                           
  1931  071C  3A00               	xorlw	0^0	; case 0
  1932  071D  1903               	skipnz
  1933  071E  2EFA               	goto	l4781
  1934  071F  3A01               	xorlw	1^0	; case 1
  1935  0720  1903               	skipnz
  1936  0721  2F00               	goto	l4783
  1937  0722  3A03               	xorlw	2^1	; case 2
  1938  0723  1903               	skipnz
  1939  0724  2F06               	goto	l4785
  1940  0725  3A01               	xorlw	3^2	; case 3
  1941  0726  1903               	skipnz
  1942  0727  2F0C               	goto	l4787
  1943  0728  3A07               	xorlw	4^3	; case 4
  1944  0729  1903               	skipnz
  1945  072A  2F12               	goto	l4789
  1946  072B  2EAB               	goto	l4761
  1947                           
  1948                           	line	227
  1949                           	
  1950  072C                     l650:	
  1951  072C  2EAB               	goto	l4761
  1952                           	line	228
  1953                           	
  1954  072D                     l644:	
  1955  072D  2EAB               	goto	l4761
  1956                           	line	229
  1957                           	
  1958  072E                     l656:	
  1959                           	line	194
  1960  072E  2EAB               	goto	l4761
  1961                           	
  1962  072F                     l657:	
  1963                           	line	230
  1964                           	
  1965  072F                     l658:	
  1966                           	global	start
  1967  072F  120A  118A  2812   	ljmp	start
  1968                           	opt stack 0
  1969                           GLOBAL	__end_of_main
  1970  0732                     	__end_of_main:
  1971 ;; =============== function _main ends ============
  1972                           
  1973                           	signat	_main,88
  1974                           	global	_ultrasonic
  1975                           psect	text1055,local,class=CODE,delta=2
  1976                           global __ptext1055
  1977  054C                     __ptext1055:
  1978                           
  1979 ;; *************** function _ultrasonic *****************
  1980 ;; Defined at:
  1981 ;;		line 561 in file "PR23.c"
  1982 ;; Parameters:    Size  Location     Type
  1983 ;;		None
  1984 ;; Auto vars:     Size  Location     Type
  1985 ;;  distance        2   36[BANK0 ] int 
  1986 ;;  n               1   35[BANK0 ] unsigned char 
  1987 ;; Return value:  Size  Location     Type
  1988 ;;		None               void
  1989 ;; Registers used:
  1990 ;;		wreg, fsr0l, fsr0h, status,2, status,0, btemp+1, pclath, cstack
  1991 ;; Tracked objects:
  1992 ;;		On entry : 0/0
  1993 ;;		On exit  : 0/0
  1994 ;;		Unchanged: 0/0
  1995 ;; Data sizes:     COMMON   BANK0   BANK1   BANK3   BANK2
  1996 ;;      Params:         0       0       0       0       0
  1997 ;;      Locals:         0       3       0       0       0
  1998 ;;      Temps:          0       1       0       0       0
  1999 ;;      Totals:         0       4       0       0       0
  2000 ;;Total ram usage:        4 bytes
  2001 ;; Hardware stack levels used:    1
  2002 ;; Hardware stack levels required when called:    6
  2003 ;; This function calls:
  2004 ;;		_lcd_clr
  2005 ;;		_send_string
  2006 ;;		_lcd_goto
  2007 ;;		_us_value
  2008 ;;		_dis_num
  2009 ;;		_forward
  2010 ;;		_stop
  2011 ;;		_backward
  2012 ;; This function is called by:
  2013 ;;		_main
  2014 ;; This function uses a non-reentrant model
  2015 ;;
  2016                           psect	text1055
  2017                           	file	"PR23.c"
  2018                           	line	561
  2019                           	global	__size_of_ultrasonic
  2020  0119                     	__size_of_ultrasonic	equ	__end_of_ultrasonic-_ultrasonic
  2021                           	
  2022  054C                     _ultrasonic:	
  2023                           	opt	stack 1
  2024                           ; Regs used in _ultrasonic: [wreg-fsr0h+status,2+status,0+btemp+1+pclath+cstack]
  2025                           	line	563
  2026                           	
  2027  054C                     l4671:	
  2028                           ;PR23.c: 562: int distance;
  2029                           ;PR23.c: 563: char n=1;
  2030  054C  1283               	bcf	status, 5	;RP0=0, select bank0
  2031  054D  1303               	bcf	status, 6	;RP1=0, select bank0
  2032  054E  01C3               	clrf	(ultrasonic@n)
  2033  054F  1403               	bsf	status,0
  2034  0550  0DC3               	rlf	(ultrasonic@n),f
  2035                           	line	564
  2036                           	
  2037  0551                     l4673:	
  2038                           ;PR23.c: 564: lcd_clr();
  2039  0551  120A  158A  22D5   	fcall	_lcd_clr
              120A  118A         
  2040                           	line	565
  2041                           	
  2042  0556                     l4675:	
  2043                           ;PR23.c: 565: send_string("Measure mode");
  2044  0556  30E0               	movlw	low(STR_13|8000h)
  2045  0557  1283               	bcf	status, 5	;RP0=0, select bank0
  2046  0558  1303               	bcf	status, 6	;RP1=0, select bank0
  2047  0559  00A9               	movwf	(?_send_string)
  2048  055A  3090               	movlw	high(STR_13|8000h)
  2049  055B  00AA               	movwf	((?_send_string))+1
  2050  055C  120A  158A  2411   	fcall	_send_string
              120A  118A         
  2051                           	line	566
  2052                           	
  2053  0561                     l4677:	
  2054                           ;PR23.c: 566: lcd_goto(20);
  2055  0561  3014               	movlw	(014h)
  2056  0562  120A  158A  233E   	fcall	_lcd_goto
              120A  118A         
  2057                           	line	567
  2058                           	
  2059  0567                     l4679:	
  2060                           ;PR23.c: 567: send_string("ADC");
  2061  0567  3062               	movlw	low(STR_14|8000h)
  2062  0568  1283               	bcf	status, 5	;RP0=0, select bank0
  2063  0569  1303               	bcf	status, 6	;RP1=0, select bank0
  2064  056A  00A9               	movwf	(?_send_string)
  2065  056B  3091               	movlw	high(STR_14|8000h)
  2066  056C  00AA               	movwf	((?_send_string))+1
  2067  056D  120A  158A  2411   	fcall	_send_string
              120A  118A         
  2068  0572  2D73               	goto	l4681
  2069                           	line	569
  2070                           ;PR23.c: 569: while(1)
  2071                           	
  2072  0573                     l761:	
  2073                           	line	571
  2074                           	
  2075  0573                     l4681:	
  2076                           ;PR23.c: 570: {
  2077                           ;PR23.c: 571: if(!RE0)
  2078  0573  1283               	bcf	status, 5	;RP0=0, select bank0
  2079  0574  1303               	bcf	status, 6	;RP1=0, select bank0
  2080  0575  1809               	btfsc	(72/8),(72)&7
  2081  0576  2D78               	goto	u5731
  2082  0577  2D79               	goto	u5730
  2083  0578                     u5731:
  2084  0578  2DBE               	goto	l762
  2085  0579                     u5730:
  2086  0579  2D7B               	goto	l763
  2087                           	line	573
  2088                           	
  2089  057A                     l4683:	
  2090                           ;PR23.c: 572: {
  2091                           ;PR23.c: 573: while(!RE0);
  2092  057A  2D7B               	goto	l763
  2093                           	
  2094  057B                     l764:	
  2095                           	
  2096  057B                     l763:	
  2097  057B  1C09               	btfss	(72/8),(72)&7
  2098  057C  2D7E               	goto	u5741
  2099  057D  2D7F               	goto	u5740
  2100  057E                     u5741:
  2101  057E  2D7B               	goto	l763
  2102  057F                     u5740:
  2103  057F  2D80               	goto	l4685
  2104                           	
  2105  0580                     l765:	
  2106                           	line	574
  2107                           	
  2108  0580                     l4685:	
  2109                           ;PR23.c: 574: n++;
  2110  0580  3001               	movlw	(01h)
  2111  0581  00C2               	movwf	(??_ultrasonic+0)+0
  2112  0582  0842               	movf	(??_ultrasonic+0)+0,w
  2113  0583  07C3               	addwf	(ultrasonic@n),f
  2114                           	line	575
  2115                           	
  2116  0584                     l4687:	
  2117                           ;PR23.c: 575: lcd_goto(20);
  2118  0584  3014               	movlw	(014h)
  2119  0585  120A  158A  233E   	fcall	_lcd_goto
              120A  118A         
  2120                           	line	576
  2121                           ;PR23.c: 576: switch (n)
  2122  058A  2DB4               	goto	l4697
  2123                           	line	578
  2124                           ;PR23.c: 577: {
  2125                           ;PR23.c: 578: case 2 :send_string("PWM ");
  2126                           	
  2127  058B                     l767:	
  2128                           	
  2129  058B                     l4689:	
  2130  058B  3058               	movlw	low(STR_15|8000h)
  2131  058C  1283               	bcf	status, 5	;RP0=0, select bank0
  2132  058D  1303               	bcf	status, 6	;RP1=0, select bank0
  2133  058E  00A9               	movwf	(?_send_string)
  2134  058F  3091               	movlw	high(STR_15|8000h)
  2135  0590  00AA               	movwf	((?_send_string))+1
  2136  0591  120A  158A  2411   	fcall	_send_string
              120A  118A         
  2137                           	line	579
  2138                           ;PR23.c: 579: break;
  2139  0596  2DBE               	goto	l762
  2140                           	line	580
  2141                           ;PR23.c: 580: case 3 :send_string("UART");
  2142                           	
  2143  0597                     l769:	
  2144                           	
  2145  0597                     l4691:	
  2146  0597  305D               	movlw	low(STR_16|8000h)
  2147  0598  1283               	bcf	status, 5	;RP0=0, select bank0
  2148  0599  1303               	bcf	status, 6	;RP1=0, select bank0
  2149  059A  00A9               	movwf	(?_send_string)
  2150  059B  3091               	movlw	high(STR_16|8000h)
  2151  059C  00AA               	movwf	((?_send_string))+1
  2152  059D  120A  158A  2411   	fcall	_send_string
              120A  118A         
  2153                           	line	581
  2154                           ;PR23.c: 581: break;
  2155  05A2  2DBE               	goto	l762
  2156                           	line	582
  2157                           ;PR23.c: 582: default:send_string("ADC ");
  2158                           	
  2159  05A3                     l770:	
  2160                           	
  2161  05A3                     l4693:	
  2162  05A3  3053               	movlw	low(STR_17|8000h)
  2163  05A4  1283               	bcf	status, 5	;RP0=0, select bank0
  2164  05A5  1303               	bcf	status, 6	;RP1=0, select bank0
  2165  05A6  00A9               	movwf	(?_send_string)
  2166  05A7  3091               	movlw	high(STR_17|8000h)
  2167  05A8  00AA               	movwf	((?_send_string))+1
  2168  05A9  120A  158A  2411   	fcall	_send_string
              120A  118A         
  2169                           	line	583
  2170                           	
  2171  05AE                     l4695:	
  2172                           ;PR23.c: 583: n = 1;
  2173  05AE  1283               	bcf	status, 5	;RP0=0, select bank0
  2174  05AF  1303               	bcf	status, 6	;RP1=0, select bank0
  2175  05B0  01C3               	clrf	(ultrasonic@n)
  2176  05B1  1403               	bsf	status,0
  2177  05B2  0DC3               	rlf	(ultrasonic@n),f
  2178                           	line	584
  2179                           ;PR23.c: 584: }
  2180  05B3  2DBE               	goto	l762
  2181                           	line	576
  2182                           	
  2183  05B4                     l766:	
  2184                           	
  2185  05B4                     l4697:	
  2186  05B4  1283               	bcf	status, 5	;RP0=0, select bank0
  2187  05B5  1303               	bcf	status, 6	;RP1=0, select bank0
  2188  05B6  0843               	movf	(ultrasonic@n),w
  2189                           	; Switch size 1, requested type "space"
  2190                           ; Number of cases is 2, Range of values is 2 to 3
  2191                           ; switch strategies available:
  2192                           ; Name         Bytes Cycles
  2193                           ; simple_byte     7     4 (average)
  2194                           ; direct_byte    28    22 (fixed)
  2195                           ;	Chosen strategy is simple_byte
  2196                           
  2197  05B7  3A02               	xorlw	2^0	; case 2
  2198  05B8  1903               	skipnz
  2199  05B9  2D8B               	goto	l4689
  2200  05BA  3A01               	xorlw	3^2	; case 3
  2201  05BB  1903               	skipnz
  2202  05BC  2D97               	goto	l4691
  2203  05BD  2DA3               	goto	l4693
  2204                           
  2205                           	line	584
  2206                           	
  2207  05BE                     l768:	
  2208                           	line	585
  2209                           	
  2210  05BE                     l762:	
  2211                           	line	587
  2212                           ;PR23.c: 585: }
  2213                           ;PR23.c: 587: if (!RE1)
  2214  05BE  1283               	bcf	status, 5	;RP0=0, select bank0
  2215  05BF  1303               	bcf	status, 6	;RP1=0, select bank0
  2216  05C0  1889               	btfsc	(73/8),(73)&7
  2217  05C1  2DC3               	goto	u5751
  2218  05C2  2DC4               	goto	u5750
  2219  05C3                     u5751:
  2220  05C3  2D73               	goto	l4681
  2221  05C4                     u5750:
  2222  05C4  2DC6               	goto	l772
  2223                           	line	589
  2224                           	
  2225  05C5                     l4699:	
  2226                           ;PR23.c: 588: {
  2227                           ;PR23.c: 589: while(!RE1);
  2228  05C5  2DC6               	goto	l772
  2229                           	
  2230  05C6                     l773:	
  2231                           	
  2232  05C6                     l772:	
  2233  05C6  1C89               	btfss	(73/8),(73)&7
  2234  05C7  2DC9               	goto	u5761
  2235  05C8  2DCA               	goto	u5760
  2236  05C9                     u5761:
  2237  05C9  2DC6               	goto	l772
  2238  05CA                     u5760:
  2239  05CA  2DCE               	goto	l4701
  2240                           	
  2241  05CB                     l774:	
  2242                           	line	590
  2243                           ;PR23.c: 590: break;
  2244  05CB  2DCE               	goto	l4701
  2245                           	line	591
  2246                           	
  2247  05CC                     l771:	
  2248  05CC  2D73               	goto	l4681
  2249                           	line	592
  2250                           	
  2251  05CD                     l776:	
  2252                           	line	569
  2253  05CD  2D73               	goto	l4681
  2254                           	
  2255  05CE                     l775:	
  2256                           	line	593
  2257                           	
  2258  05CE                     l4701:	
  2259                           ;PR23.c: 591: }
  2260                           ;PR23.c: 592: }
  2261                           ;PR23.c: 593: lcd_clr();
  2262  05CE  120A  158A  22D5   	fcall	_lcd_clr
              120A  118A         
  2263                           	line	594
  2264                           	
  2265  05D3                     l4703:	
  2266                           ;PR23.c: 594: send_string("Distance");
  2267  05D3  3021               	movlw	low(STR_18|8000h)
  2268  05D4  1283               	bcf	status, 5	;RP0=0, select bank0
  2269  05D5  1303               	bcf	status, 6	;RP1=0, select bank0
  2270  05D6  00A9               	movwf	(?_send_string)
  2271  05D7  3091               	movlw	high(STR_18|8000h)
  2272  05D8  00AA               	movwf	((?_send_string))+1
  2273  05D9  120A  158A  2411   	fcall	_send_string
              120A  118A         
  2274  05DE  2DDF               	goto	l4705
  2275                           	line	596
  2276                           ;PR23.c: 596: while(1)
  2277                           	
  2278  05DF                     l777:	
  2279                           	line	598
  2280                           	
  2281  05DF                     l4705:	
  2282                           ;PR23.c: 597: {
  2283                           ;PR23.c: 598: lcd_goto(20);
  2284  05DF  3014               	movlw	(014h)
  2285  05E0  120A  158A  233E   	fcall	_lcd_goto
              120A  118A         
  2286                           	line	599
  2287                           ;PR23.c: 599: distance = us_value(n);
  2288  05E5  1283               	bcf	status, 5	;RP0=0, select bank0
  2289  05E6  1303               	bcf	status, 6	;RP1=0, select bank0
  2290  05E7  0843               	movf	(ultrasonic@n),w
  2291  05E8  120A  158A  25C0   	fcall	_us_value
              120A  118A         
  2292  05ED  1283               	bcf	status, 5	;RP0=0, select bank0
  2293  05EE  1303               	bcf	status, 6	;RP1=0, select bank0
  2294  05EF  083A               	movf	(1+(?_us_value)),w
  2295  05F0  01C5               	clrf	(ultrasonic@distance+1)
  2296  05F1  07C5               	addwf	(ultrasonic@distance+1)
  2297  05F2  0839               	movf	(0+(?_us_value)),w
  2298  05F3  01C4               	clrf	(ultrasonic@distance)
  2299  05F4  07C4               	addwf	(ultrasonic@distance)
  2300                           
  2301                           	line	600
  2302                           	
  2303  05F5                     l4707:	
  2304                           ;PR23.c: 600: dis_num(distance);
  2305  05F5  0844               	movf	(ultrasonic@distance),w
  2306  05F6  00AE               	movwf	(?_dis_num)
  2307  05F7  0845               	movf	(ultrasonic@distance+1),w
  2308  05F8  00AF               	movwf	(?_dis_num+1)
  2309  05F9  3000               	movlw	0
  2310  05FA  1BAF               	btfsc	(?_dis_num+1),7
  2311  05FB  30FF               	movlw	255
  2312  05FC  00B0               	movwf	(?_dis_num+2)
  2313  05FD  00B1               	movwf	(?_dis_num+3)
  2314  05FE  120A  118A  23F3   	fcall	_dis_num
              120A  118A         
  2315                           	line	602
  2316                           	
  2317  0603                     l4709:	
  2318                           ;PR23.c: 602: if (distance> 40)
  2319  0603  1283               	bcf	status, 5	;RP0=0, select bank0
  2320  0604  1303               	bcf	status, 6	;RP1=0, select bank0
  2321  0605  0845               	movf	(ultrasonic@distance+1),w
  2322  0606  3A80               	xorlw	80h
  2323  0607  00FF               	movwf	btemp+1
  2324  0608  3080               	movlw	(high(029h))^80h
  2325  0609  027F               	subwf	btemp+1,w
  2326  060A  1D03               	skipz
  2327  060B  2E0E               	goto	u5775
  2328  060C  3029               	movlw	low(029h)
  2329  060D  0244               	subwf	(ultrasonic@distance),w
  2330  060E                     u5775:
  2331                           
  2332  060E  1C03               	skipc
  2333  060F  2E11               	goto	u5771
  2334  0610  2E12               	goto	u5770
  2335  0611                     u5771:
  2336  0611  2E1F               	goto	l4719
  2337  0612                     u5770:
  2338                           	line	604
  2339                           	
  2340  0612                     l4711:	
  2341                           ;PR23.c: 603: {
  2342                           ;PR23.c: 604: forward();
  2343  0612  120A  158A  2273   	fcall	_forward
              120A  118A         
  2344                           	line	605
  2345                           	
  2346  0617                     l4713:	
  2347                           ;PR23.c: 605: CCPR1L = 255;
  2348  0617  30FF               	movlw	(0FFh)
  2349  0618  1283               	bcf	status, 5	;RP0=0, select bank0
  2350  0619  1303               	bcf	status, 6	;RP1=0, select bank0
  2351  061A  0095               	movwf	(21)	;volatile
  2352                           	line	606
  2353                           	
  2354  061B                     l4715:	
  2355                           ;PR23.c: 606: CCPR2L = 255;
  2356  061B  30FF               	movlw	(0FFh)
  2357  061C  009B               	movwf	(27)	;volatile
  2358                           	line	607
  2359                           	
  2360  061D                     l4717:	
  2361                           ;PR23.c: 607: RE2 = 0;
  2362  061D  1109               	bcf	(74/8),(74)&7
  2363                           	line	608
  2364                           ;PR23.c: 608: }
  2365  061E  2DDF               	goto	l4705
  2366                           	line	609
  2367                           	
  2368  061F                     l778:	
  2369                           	
  2370  061F                     l4719:	
  2371                           ;PR23.c: 609: else if (distance> 30)
  2372  061F  1283               	bcf	status, 5	;RP0=0, select bank0
  2373  0620  1303               	bcf	status, 6	;RP1=0, select bank0
  2374  0621  0845               	movf	(ultrasonic@distance+1),w
  2375  0622  3A80               	xorlw	80h
  2376  0623  00FF               	movwf	btemp+1
  2377  0624  3080               	movlw	(high(01Fh))^80h
  2378  0625  027F               	subwf	btemp+1,w
  2379  0626  1D03               	skipz
  2380  0627  2E2A               	goto	u5785
  2381  0628  301F               	movlw	low(01Fh)
  2382  0629  0244               	subwf	(ultrasonic@distance),w
  2383  062A                     u5785:
  2384                           
  2385  062A  1C03               	skipc
  2386  062B  2E2D               	goto	u5781
  2387  062C  2E2E               	goto	u5780
  2388  062D                     u5781:
  2389  062D  2E3B               	goto	l4729
  2390  062E                     u5780:
  2391                           	line	611
  2392                           	
  2393  062E                     l4721:	
  2394                           ;PR23.c: 610: {
  2395                           ;PR23.c: 611: forward();
  2396  062E  120A  158A  2273   	fcall	_forward
              120A  118A         
  2397                           	line	612
  2398                           	
  2399  0633                     l4723:	
  2400                           ;PR23.c: 612: CCPR1L = 230;
  2401  0633  30E6               	movlw	(0E6h)
  2402  0634  1283               	bcf	status, 5	;RP0=0, select bank0
  2403  0635  1303               	bcf	status, 6	;RP1=0, select bank0
  2404  0636  0095               	movwf	(21)	;volatile
  2405                           	line	613
  2406                           	
  2407  0637                     l4725:	
  2408                           ;PR23.c: 613: CCPR2L = 230;
  2409  0637  30E6               	movlw	(0E6h)
  2410  0638  009B               	movwf	(27)	;volatile
  2411                           	line	614
  2412                           	
  2413  0639                     l4727:	
  2414                           ;PR23.c: 614: RE2 = 0;
  2415  0639  1109               	bcf	(74/8),(74)&7
  2416                           	line	615
  2417                           ;PR23.c: 615: }
  2418  063A  2DDF               	goto	l4705
  2419                           	line	616
  2420                           	
  2421  063B                     l780:	
  2422                           	
  2423  063B                     l4729:	
  2424                           ;PR23.c: 616: else if( distance >20)
  2425  063B  1283               	bcf	status, 5	;RP0=0, select bank0
  2426  063C  1303               	bcf	status, 6	;RP1=0, select bank0
  2427  063D  0845               	movf	(ultrasonic@distance+1),w
  2428  063E  3A80               	xorlw	80h
  2429  063F  00FF               	movwf	btemp+1
  2430  0640  3080               	movlw	(high(015h))^80h
  2431  0641  027F               	subwf	btemp+1,w
  2432  0642  1D03               	skipz
  2433  0643  2E46               	goto	u5795
  2434  0644  3015               	movlw	low(015h)
  2435  0645  0244               	subwf	(ultrasonic@distance),w
  2436  0646                     u5795:
  2437                           
  2438  0646  1C03               	skipc
  2439  0647  2E49               	goto	u5791
  2440  0648  2E4A               	goto	u5790
  2441  0649                     u5791:
  2442  0649  2E53               	goto	l4735
  2443  064A                     u5790:
  2444                           	line	618
  2445                           	
  2446  064A                     l4731:	
  2447                           ;PR23.c: 617: {
  2448                           ;PR23.c: 618: stop();
  2449  064A  120A  158A  226C   	fcall	_stop
              120A  118A         
  2450                           	line	619
  2451                           	
  2452  064F                     l4733:	
  2453                           ;PR23.c: 619: RE2 = 0;
  2454  064F  1283               	bcf	status, 5	;RP0=0, select bank0
  2455  0650  1303               	bcf	status, 6	;RP1=0, select bank0
  2456  0651  1109               	bcf	(74/8),(74)&7
  2457                           	line	620
  2458                           ;PR23.c: 620: }
  2459  0652  2DDF               	goto	l4705
  2460                           	line	621
  2461                           	
  2462  0653                     l782:	
  2463                           	line	623
  2464                           	
  2465  0653                     l4735:	
  2466                           ;PR23.c: 621: else
  2467                           ;PR23.c: 622: {
  2468                           ;PR23.c: 623: backward();
  2469  0653  120A  158A  227A   	fcall	_backward
              120A  118A         
  2470                           	line	624
  2471                           	
  2472  0658                     l4737:	
  2473                           ;PR23.c: 624: CCPR1L = 230;
  2474  0658  30E6               	movlw	(0E6h)
  2475  0659  1283               	bcf	status, 5	;RP0=0, select bank0
  2476  065A  1303               	bcf	status, 6	;RP1=0, select bank0
  2477  065B  0095               	movwf	(21)	;volatile
  2478                           	line	625
  2479                           	
  2480  065C                     l4739:	
  2481                           ;PR23.c: 625: CCPR2L = 230;
  2482  065C  30E6               	movlw	(0E6h)
  2483  065D  009B               	movwf	(27)	;volatile
  2484                           	line	626
  2485                           	
  2486  065E                     l4741:	
  2487                           ;PR23.c: 626: RE2 = 1;
  2488  065E  1509               	bsf	(74/8),(74)&7
  2489  065F  2DDF               	goto	l4705
  2490                           	line	627
  2491                           	
  2492  0660                     l783:	
  2493  0660  2DDF               	goto	l4705
  2494                           	
  2495  0661                     l781:	
  2496  0661  2DDF               	goto	l4705
  2497                           	
  2498  0662                     l779:	
  2499  0662  2DDF               	goto	l4705
  2500                           	line	628
  2501                           	
  2502  0663                     l784:	
  2503                           	line	596
  2504  0663  2DDF               	goto	l4705
  2505                           	
  2506  0664                     l785:	
  2507                           	line	629
  2508                           	
  2509  0664                     l786:	
  2510  0664  0008               	return
  2511                           	opt stack 0
  2512                           GLOBAL	__end_of_ultrasonic
  2513  0665                     	__end_of_ultrasonic:
  2514 ;; =============== function _ultrasonic ends ============
  2515                           
  2516                           	signat	_ultrasonic,88
  2517                           	global	_us_value
  2518                           psect	text1056,local,class=CODE,delta=2
  2519                           global __ptext1056
  2520  0DC0                     __ptext1056:
  2521                           
  2522 ;; *************** function _us_value *****************
  2523 ;; Defined at:
  2524 ;;		line 867 in file "PR23.c"
  2525 ;; Parameters:    Size  Location     Type
  2526 ;;  mode            1    wreg     unsigned char 
  2527 ;; Auto vars:     Size  Location     Type
  2528 ;;  mode            1   31[BANK0 ] unsigned char 
  2529 ;;  value           2   32[BANK0 ] unsigned int 
  2530 ;; Return value:  Size  Location     Type
  2531 ;;                  2   25[BANK0 ] unsigned int 
  2532 ;; Registers used:
  2533 ;;		wreg, fsr0l, fsr0h, status,2, status,0, btemp+1, pclath, cstack
  2534 ;; Tracked objects:
  2535 ;;		On entry : 0/0
  2536 ;;		On exit  : 0/0
  2537 ;;		Unchanged: 0/0
  2538 ;; Data sizes:     COMMON   BANK0   BANK1   BANK3   BANK2
  2539 ;;      Params:         0       2       0       0       0
  2540 ;;      Locals:         0       3       0       0       0
  2541 ;;      Temps:          0       4       0       0       0
  2542 ;;      Totals:         0       9       0       0       0
  2543 ;;Total ram usage:        9 bytes
  2544 ;; Hardware stack levels used:    1
  2545 ;; Hardware stack levels required when called:    5
  2546 ;; This function calls:
  2547 ;;		_read_adc
  2548 ;;		___wmul
  2549 ;;		_lcd_goto
  2550 ;;		_send_string
  2551 ;; This function is called by:
  2552 ;;		_ultrasonic
  2553 ;; This function uses a non-reentrant model
  2554 ;;
  2555                           psect	text1056
  2556                           	file	"PR23.c"
  2557                           	line	867
  2558                           	global	__size_of_us_value
  2559  0089                     	__size_of_us_value	equ	__end_of_us_value-_us_value
  2560                           	
  2561  0DC0                     _us_value:	
  2562                           	opt	stack 1
  2563                           ; Regs used in _us_value: [wreg-fsr0h+status,2+status,0+btemp+1+pclath+cstack]
  2564                           ;us_value@mode stored from wreg
  2565  0DC0  1283               	bcf	status, 5	;RP0=0, select bank0
  2566  0DC1  1303               	bcf	status, 6	;RP1=0, select bank0
  2567  0DC2  00BF               	movwf	(us_value@mode)
  2568                           	line	869
  2569                           	
  2570  0DC3                     l4649:	
  2571                           ;PR23.c: 868: unsigned int value;
  2572                           ;PR23.c: 869: switch (mode)
  2573  0DC3  2E32               	goto	l4665
  2574                           	line	871
  2575                           ;PR23.c: 870: {
  2576                           ;PR23.c: 871: case 1:
  2577                           	
  2578  0DC4                     l863:	
  2579                           	line	872
  2580                           	
  2581  0DC4                     l4651:	
  2582                           ;PR23.c: 872: read_adc(0b10000001);
  2583  0DC4  3081               	movlw	(081h)
  2584  0DC5  120A  158A  2769   	fcall	_read_adc
              120A  158A         
  2585                           	line	873
  2586                           	
  2587  0DCA                     l4653:	
  2588                           ;PR23.c: 873: value = result;
  2589  0DCA  1283               	bcf	status, 5	;RP0=0, select bank0
  2590  0DCB  1303               	bcf	status, 6	;RP1=0, select bank0
  2591  0DCC  0854               	movf	(_result+1),w
  2592  0DCD  01C1               	clrf	(us_value@value+1)
  2593  0DCE  07C1               	addwf	(us_value@value+1)
  2594  0DCF  0853               	movf	(_result),w
  2595  0DD0  01C0               	clrf	(us_value@value)
  2596  0DD1  07C0               	addwf	(us_value@value)
  2597                           
  2598                           	line	874
  2599                           ;PR23.c: 874: break;
  2600  0DD2  2E3F               	goto	l4667
  2601                           	line	875
  2602                           ;PR23.c: 875: case 2:
  2603                           	
  2604  0DD3                     l865:	
  2605                           	line	876
  2606                           	
  2607  0DD3                     l4655:	
  2608                           ;PR23.c: 876: value = TH;
  2609  0DD3  0852               	movf	(_TH+1),w
  2610  0DD4  01C1               	clrf	(us_value@value+1)
  2611  0DD5  07C1               	addwf	(us_value@value+1)
  2612  0DD6  0851               	movf	(_TH),w
  2613  0DD7  01C0               	clrf	(us_value@value)
  2614  0DD8  07C0               	addwf	(us_value@value)
  2615                           
  2616                           	line	877
  2617                           ;PR23.c: 877: break;
  2618  0DD9  2E3F               	goto	l4667
  2619                           	line	878
  2620                           ;PR23.c: 878: case 3: if ( data [0]=='R')
  2621                           	
  2622  0DDA                     l866:	
  2623                           	
  2624  0DDA                     l4657:	
  2625  0DDA  0849               	movf	(_data),w
  2626  0DDB  3A52               	xorlw	052h
  2627  0DDC  1D03               	skipz
  2628  0DDD  2DDF               	goto	u5721
  2629  0DDE  2DE0               	goto	u5720
  2630  0DDF                     u5721:
  2631  0DDF  2E1C               	goto	l4661
  2632  0DE0                     u5720:
  2633                           	line	880
  2634                           	
  2635  0DE0                     l4659:	
  2636                           ;PR23.c: 879: {
  2637                           ;PR23.c: 880: value = (data[1] - 0x30)*100+ (data[2] - 0x30)*10+ (data[3] - 0x30);
  2638  0DE0  084A               	movf	0+(_data)+01h,w
  2639  0DE1  3ED0               	addlw	low(-48)
  2640  0DE2  00A0               	movwf	(?___wmul)
  2641  0DE3  30FF               	movlw	high(-48)
  2642  0DE4  1803               	skipnc
  2643  0DE5  3000               	movlw	(high(-48)+1)&0ffh
  2644  0DE6  00A1               	movwf	((?___wmul))+1
  2645  0DE7  3064               	movlw	low(064h)
  2646  0DE8  00A2               	movwf	0+(?___wmul)+02h
  2647  0DE9  3000               	movlw	high(064h)
  2648  0DEA  00A3               	movwf	(0+(?___wmul)+02h)+1
  2649  0DEB  120A  158A  2382   	fcall	___wmul
              120A  158A         
  2650  0DF0  1283               	bcf	status, 5	;RP0=0, select bank0
  2651  0DF1  1303               	bcf	status, 6	;RP1=0, select bank0
  2652  0DF2  084C               	movf	0+(_data)+03h,w
  2653  0DF3  0720               	addwf	(0+(?___wmul)),w
  2654  0DF4  00BB               	movwf	(??_us_value+0)+0
  2655  0DF5  0821               	movf	(1+(?___wmul)),w
  2656  0DF6  1803               	skipnc
  2657  0DF7  0A21               	incf	(1+(?___wmul)),w
  2658  0DF8  00BC               	movwf	((??_us_value+0)+0)+1
  2659  0DF9  084B               	movf	0+(_data)+02h,w
  2660  0DFA  3ED0               	addlw	low(-48)
  2661  0DFB  00A0               	movwf	(?___wmul)
  2662  0DFC  30FF               	movlw	high(-48)
  2663  0DFD  1803               	skipnc
  2664  0DFE  3000               	movlw	(high(-48)+1)&0ffh
  2665  0DFF  00A1               	movwf	((?___wmul))+1
  2666  0E00  300A               	movlw	low(0Ah)
  2667  0E01  00A2               	movwf	0+(?___wmul)+02h
  2668  0E02  3000               	movlw	high(0Ah)
  2669  0E03  00A3               	movwf	(0+(?___wmul)+02h)+1
  2670  0E04  120A  158A  2382   	fcall	___wmul
              120A  158A         
  2671  0E09  1283               	bcf	status, 5	;RP0=0, select bank0
  2672  0E0A  1303               	bcf	status, 6	;RP1=0, select bank0
  2673  0E0B  0820               	movf	(0+(?___wmul)),w
  2674  0E0C  073B               	addwf	0+(??_us_value+0)+0,w
  2675  0E0D  00BD               	movwf	(??_us_value+2)+0
  2676  0E0E  0821               	movf	(1+(?___wmul)),w
  2677  0E0F  1803               	skipnc
  2678  0E10  0A21               	incf	(1+(?___wmul)),w
  2679  0E11  073C               	addwf	1+(??_us_value+0)+0,w
  2680  0E12  00BE               	movwf	1+(??_us_value+2)+0
  2681  0E13  083D               	movf	0+(??_us_value+2)+0,w
  2682  0E14  3ED0               	addlw	low(-48)
  2683  0E15  00C0               	movwf	(us_value@value)
  2684  0E16  083E               	movf	1+(??_us_value+2)+0,w
  2685  0E17  1803               	skipnc
  2686  0E18  3E01               	addlw	1
  2687  0E19  3EFF               	addlw	high(-48)
  2688  0E1A  00C1               	movwf	1+(us_value@value)
  2689                           	line	881
  2690                           ;PR23.c: 881: }
  2691  0E1B  2E3F               	goto	l4667
  2692                           	line	882
  2693                           	
  2694  0E1C                     l867:	
  2695                           	line	884
  2696                           	
  2697  0E1C                     l4661:	
  2698                           ;PR23.c: 882: else
  2699                           ;PR23.c: 883: {
  2700                           ;PR23.c: 884: lcd_goto(20);
  2701  0E1C  3014               	movlw	(014h)
  2702  0E1D  120A  158A  233E   	fcall	_lcd_goto
              120A  158A         
  2703                           	line	885
  2704                           	
  2705  0E22                     l4663:	
  2706                           ;PR23.c: 885: send_string("not connected");
  2707  0E22  30D2               	movlw	low(STR_30|8000h)
  2708  0E23  1283               	bcf	status, 5	;RP0=0, select bank0
  2709  0E24  1303               	bcf	status, 6	;RP1=0, select bank0
  2710  0E25  00A9               	movwf	(?_send_string)
  2711  0E26  3090               	movlw	high(STR_30|8000h)
  2712  0E27  00AA               	movwf	((?_send_string))+1
  2713  0E28  120A  158A  2411   	fcall	_send_string
              120A  158A         
  2714  0E2D  2E2E               	goto	l870
  2715                           	line	886
  2716                           ;PR23.c: 886: while(1);
  2717                           	
  2718  0E2E                     l869:	
  2719                           	
  2720  0E2E                     l870:	
  2721  0E2E  2E2E               	goto	l870
  2722                           	
  2723  0E2F                     l871:	
  2724  0E2F  2E3F               	goto	l4667
  2725                           	line	887
  2726                           	
  2727  0E30                     l868:	
  2728  0E30  2E3F               	goto	l4667
  2729                           	line	888
  2730                           ;PR23.c: 887: }
  2731                           ;PR23.c: 888: default: ;
  2732                           	
  2733  0E31                     l872:	
  2734                           	line	889
  2735                           ;PR23.c: 889: }
  2736  0E31  2E3F               	goto	l4667
  2737                           	line	869
  2738                           	
  2739  0E32                     l862:	
  2740                           	
  2741  0E32                     l4665:	
  2742  0E32  1283               	bcf	status, 5	;RP0=0, select bank0
  2743  0E33  1303               	bcf	status, 6	;RP1=0, select bank0
  2744  0E34  083F               	movf	(us_value@mode),w
  2745                           	; Switch size 1, requested type "space"
  2746                           ; Number of cases is 3, Range of values is 1 to 3
  2747                           ; switch strategies available:
  2748                           ; Name         Bytes Cycles
  2749                           ; simple_byte    10     6 (average)
  2750                           ; direct_byte    31    22 (fixed)
  2751                           ;	Chosen strategy is simple_byte
  2752                           
  2753  0E35  3A01               	xorlw	1^0	; case 1
  2754  0E36  1903               	skipnz
  2755  0E37  2DC4               	goto	l4651
  2756  0E38  3A03               	xorlw	2^1	; case 2
  2757  0E39  1903               	skipnz
  2758  0E3A  2DD3               	goto	l4655
  2759  0E3B  3A01               	xorlw	3^2	; case 3
  2760  0E3C  1903               	skipnz
  2761  0E3D  2DDA               	goto	l4657
  2762  0E3E  2E3F               	goto	l4667
  2763                           
  2764                           	line	889
  2765                           	
  2766  0E3F                     l864:	
  2767                           	line	890
  2768                           	
  2769  0E3F                     l4667:	
  2770                           ;PR23.c: 890: return value;
  2771  0E3F  1283               	bcf	status, 5	;RP0=0, select bank0
  2772  0E40  1303               	bcf	status, 6	;RP1=0, select bank0
  2773  0E41  0841               	movf	(us_value@value+1),w
  2774  0E42  01BA               	clrf	(?_us_value+1)
  2775  0E43  07BA               	addwf	(?_us_value+1)
  2776  0E44  0840               	movf	(us_value@value),w
  2777  0E45  01B9               	clrf	(?_us_value)
  2778  0E46  07B9               	addwf	(?_us_value)
  2779                           
  2780  0E47  2E48               	goto	l873
  2781                           	
  2782  0E48                     l4669:	
  2783                           	line	891
  2784                           	
  2785  0E48                     l873:	
  2786  0E48  0008               	return
  2787                           	opt stack 0
  2788                           GLOBAL	__end_of_us_value
  2789  0E49                     	__end_of_us_value:
  2790 ;; =============== function _us_value ends ============
  2791                           
  2792                           	signat	_us_value,4218
  2793                           	global	_SKPS_PScon
  2794                           psect	text1057,local,class=CODE,delta=2
  2795                           global __ptext1057
  2796  0265                     __ptext1057:
  2797                           
  2798 ;; *************** function _SKPS_PScon *****************
  2799 ;; Defined at:
  2800 ;;		line 740 in file "PR23.c"
  2801 ;; Parameters:    Size  Location     Type
  2802 ;;		None
  2803 ;; Auto vars:     Size  Location     Type
  2804 ;;  right_v         1   15[BANK0 ] unsigned char 
  2805 ;;  left_v          1   14[BANK0 ] unsigned char 
  2806 ;;  down_v          1   13[BANK0 ] unsigned char 
  2807 ;;  up_v            1   12[BANK0 ] unsigned char 
  2808 ;; Return value:  Size  Location     Type
  2809 ;;		None               void
  2810 ;; Registers used:
  2811 ;;		wreg, fsr0l, fsr0h, status,2, status,0, btemp+1, pclath, cstack
  2812 ;; Tracked objects:
  2813 ;;		On entry : 0/0
  2814 ;;		On exit  : 0/0
  2815 ;;		Unchanged: 0/0
  2816 ;; Data sizes:     COMMON   BANK0   BANK1   BANK3   BANK2
  2817 ;;      Params:         0       0       0       0       0
  2818 ;;      Locals:         0       4       0       0       0
  2819 ;;      Temps:          0       1       0       0       0
  2820 ;;      Totals:         0       5       0       0       0
  2821 ;;Total ram usage:        5 bytes
  2822 ;; Hardware stack levels used:    1
  2823 ;; Hardware stack levels required when called:    5
  2824 ;; This function calls:
  2825 ;;		_stop
  2826 ;;		_lcd_clr
  2827 ;;		_lcd_goto
  2828 ;;		_send_string
  2829 ;;		_skps
  2830 ;;		_forward
  2831 ;;		_backward
  2832 ;;		_left
  2833 ;;		_right
  2834 ;; This function is called by:
  2835 ;;		_main
  2836 ;; This function uses a non-reentrant model
  2837 ;;
  2838                           psect	text1057
  2839                           	file	"PR23.c"
  2840                           	line	740
  2841                           	global	__size_of_SKPS_PScon
  2842  018E                     	__size_of_SKPS_PScon	equ	__end_of_SKPS_PScon-_SKPS_PScon
  2843                           	
  2844  0265                     _SKPS_PScon:	
  2845                           	opt	stack 2
  2846                           ; Regs used in _SKPS_PScon: [wreg-fsr0h+status,2+status,0+btemp+1+pclath+cstack]
  2847                           	line	744
  2848                           	
  2849  0265                     l4525:	
  2850                           ;PR23.c: 741: unsigned char up_v, down_v, left_v, right_v;
  2851                           ;PR23.c: 744: RCIE = 0;
  2852  0265  1683               	bsf	status, 5	;RP0=1, select bank1
  2853  0266  1303               	bcf	status, 6	;RP1=0, select bank1
  2854  0267  128C               	bcf	(1125/8)^080h,(1125)&7
  2855                           	line	745
  2856                           ;PR23.c: 745: GIE = 0;
  2857  0268  138B               	bcf	(95/8),(95)&7
  2858                           	line	746
  2859                           ;PR23.c: 746: PEIE = 0;
  2860  0269  130B               	bcf	(94/8),(94)&7
  2861                           	line	747
  2862                           ;PR23.c: 747: TMR0IE = 0;
  2863  026A  128B               	bcf	(93/8),(93)&7
  2864                           	line	749
  2865                           	
  2866  026B                     l4527:	
  2867                           ;PR23.c: 749: stop();
  2868  026B  120A  158A  226C   	fcall	_stop
              120A  118A         
  2869                           	line	751
  2870                           	
  2871  0270                     l4529:	
  2872                           ;PR23.c: 751: lcd_clr();
  2873  0270  120A  158A  22D5   	fcall	_lcd_clr
              120A  118A         
  2874                           	line	752
  2875                           	
  2876  0275                     l4531:	
  2877                           ;PR23.c: 752: lcd_goto(0);
  2878  0275  3000               	movlw	(0)
  2879  0276  120A  158A  233E   	fcall	_lcd_goto
              120A  118A         
  2880                           	line	753
  2881                           	
  2882  027B                     l4533:	
  2883                           ;PR23.c: 753: send_string("Controlling PR23");
  2884  027B  30A3               	movlw	low(STR_28|8000h)
  2885  027C  1283               	bcf	status, 5	;RP0=0, select bank0
  2886  027D  1303               	bcf	status, 6	;RP1=0, select bank0
  2887  027E  00A9               	movwf	(?_send_string)
  2888  027F  3090               	movlw	high(STR_28|8000h)
  2889  0280  00AA               	movwf	((?_send_string))+1
  2890  0281  120A  158A  2411   	fcall	_send_string
              120A  118A         
  2891                           	line	754
  2892                           	
  2893  0286                     l4535:	
  2894                           ;PR23.c: 754: lcd_goto(20);
  2895  0286  3014               	movlw	(014h)
  2896  0287  120A  158A  233E   	fcall	_lcd_goto
              120A  118A         
  2897                           	line	755
  2898                           	
  2899  028C                     l4537:	
  2900                           ;PR23.c: 755: send_string("   Using SKPS");
  2901  028C  30C4               	movlw	low(STR_29|8000h)
  2902  028D  1283               	bcf	status, 5	;RP0=0, select bank0
  2903  028E  1303               	bcf	status, 6	;RP1=0, select bank0
  2904  028F  00A9               	movwf	(?_send_string)
  2905  0290  3090               	movlw	high(STR_29|8000h)
  2906  0291  00AA               	movwf	((?_send_string))+1
  2907  0292  120A  158A  2411   	fcall	_send_string
              120A  118A         
  2908  0297  2A98               	goto	l4539
  2909                           	line	757
  2910                           ;PR23.c: 757: while(1)
  2911                           	
  2912  0298                     l822:	
  2913                           	line	760
  2914                           	
  2915  0298                     l4539:	
  2916                           ;PR23.c: 758: {
  2917                           ;PR23.c: 760: if(skps(10)==0)RE2=1;
  2918  0298  300A               	movlw	(0Ah)
  2919  0299  120A  158A  22B4   	fcall	_skps
              120A  118A         
  2920  029E  3800               	iorlw	0
  2921  029F  1D03               	skipz
  2922  02A0  2AA2               	goto	u5551
  2923  02A1  2AA3               	goto	u5550
  2924  02A2                     u5551:
  2925  02A2  2AA7               	goto	l823
  2926  02A3                     u5550:
  2927                           	
  2928  02A3                     l4541:	
  2929  02A3  1283               	bcf	status, 5	;RP0=0, select bank0
  2930  02A4  1303               	bcf	status, 6	;RP1=0, select bank0
  2931  02A5  1509               	bsf	(74/8),(74)&7
  2932  02A6  2AAB               	goto	l4543
  2933                           	line	761
  2934                           	
  2935  02A7                     l823:	
  2936                           ;PR23.c: 761: else RE2=0;
  2937  02A7  1283               	bcf	status, 5	;RP0=0, select bank0
  2938  02A8  1303               	bcf	status, 6	;RP1=0, select bank0
  2939  02A9  1109               	bcf	(74/8),(74)&7
  2940  02AA  2AAB               	goto	l4543
  2941                           	
  2942  02AB                     l824:	
  2943                           	line	764
  2944                           	
  2945  02AB                     l4543:	
  2946                           ;PR23.c: 764: up_v=skps(24);
  2947  02AB  3018               	movlw	(018h)
  2948  02AC  120A  158A  22B4   	fcall	_skps
              120A  118A         
  2949  02B1  1283               	bcf	status, 5	;RP0=0, select bank0
  2950  02B2  1303               	bcf	status, 6	;RP1=0, select bank0
  2951  02B3  00AB               	movwf	(??_SKPS_PScon+0)+0
  2952  02B4  082B               	movf	(??_SKPS_PScon+0)+0,w
  2953  02B5  00AC               	movwf	(SKPS_PScon@up_v)
  2954                           	line	765
  2955                           ;PR23.c: 765: down_v=skps(25);
  2956  02B6  3019               	movlw	(019h)
  2957  02B7  120A  158A  22B4   	fcall	_skps
              120A  118A         
  2958  02BC  1283               	bcf	status, 5	;RP0=0, select bank0
  2959  02BD  1303               	bcf	status, 6	;RP1=0, select bank0
  2960  02BE  00AB               	movwf	(??_SKPS_PScon+0)+0
  2961  02BF  082B               	movf	(??_SKPS_PScon+0)+0,w
  2962  02C0  00AD               	movwf	(SKPS_PScon@down_v)
  2963                           	line	766
  2964                           ;PR23.c: 766: left_v=skps(22);
  2965  02C1  3016               	movlw	(016h)
  2966  02C2  120A  158A  22B4   	fcall	_skps
              120A  118A         
  2967  02C7  1283               	bcf	status, 5	;RP0=0, select bank0
  2968  02C8  1303               	bcf	status, 6	;RP1=0, select bank0
  2969  02C9  00AB               	movwf	(??_SKPS_PScon+0)+0
  2970  02CA  082B               	movf	(??_SKPS_PScon+0)+0,w
  2971  02CB  00AE               	movwf	(SKPS_PScon@left_v)
  2972                           	line	767
  2973                           ;PR23.c: 767: right_v=skps(23);
  2974  02CC  3017               	movlw	(017h)
  2975  02CD  120A  158A  22B4   	fcall	_skps
              120A  118A         
  2976  02D2  1283               	bcf	status, 5	;RP0=0, select bank0
  2977  02D3  1303               	bcf	status, 6	;RP1=0, select bank0
  2978  02D4  00AB               	movwf	(??_SKPS_PScon+0)+0
  2979  02D5  082B               	movf	(??_SKPS_PScon+0)+0,w
  2980  02D6  00AF               	movwf	(SKPS_PScon@right_v)
  2981                           	line	770
  2982                           ;PR23.c: 770: if(skps(4)==0)
  2983  02D7  3004               	movlw	(04h)
  2984  02D8  120A  158A  22B4   	fcall	_skps
              120A  118A         
  2985  02DD  3800               	iorlw	0
  2986  02DE  1D03               	skipz
  2987  02DF  2AE1               	goto	u5561
  2988  02E0  2AE2               	goto	u5560
  2989  02E1                     u5561:
  2990  02E1  2AEE               	goto	l4551
  2991  02E2                     u5560:
  2992                           	line	772
  2993                           	
  2994  02E2                     l4545:	
  2995                           ;PR23.c: 771: {
  2996                           ;PR23.c: 772: forward();
  2997  02E2  120A  158A  2273   	fcall	_forward
              120A  118A         
  2998                           	line	773
  2999                           	
  3000  02E7                     l4547:	
  3001                           ;PR23.c: 773: CCPR1L=230;
  3002  02E7  30E6               	movlw	(0E6h)
  3003  02E8  1283               	bcf	status, 5	;RP0=0, select bank0
  3004  02E9  1303               	bcf	status, 6	;RP1=0, select bank0
  3005  02EA  0095               	movwf	(21)	;volatile
  3006                           	line	774
  3007                           	
  3008  02EB                     l4549:	
  3009                           ;PR23.c: 774: CCPR2L=230;
  3010  02EB  30E6               	movlw	(0E6h)
  3011  02EC  009B               	movwf	(27)	;volatile
  3012                           	line	775
  3013                           ;PR23.c: 775: }
  3014  02ED  2A98               	goto	l4539
  3015                           	line	776
  3016                           	
  3017  02EE                     l825:	
  3018                           	
  3019  02EE                     l4551:	
  3020                           ;PR23.c: 776: else if(skps(6)==0)
  3021  02EE  3006               	movlw	(06h)
  3022  02EF  120A  158A  22B4   	fcall	_skps
              120A  118A         
  3023  02F4  3800               	iorlw	0
  3024  02F5  1D03               	skipz
  3025  02F6  2AF8               	goto	u5571
  3026  02F7  2AF9               	goto	u5570
  3027  02F8                     u5571:
  3028  02F8  2B05               	goto	l4559
  3029  02F9                     u5570:
  3030                           	line	778
  3031                           	
  3032  02F9                     l4553:	
  3033                           ;PR23.c: 777: {
  3034                           ;PR23.c: 778: backward();
  3035  02F9  120A  158A  227A   	fcall	_backward
              120A  118A         
  3036                           	line	779
  3037                           	
  3038  02FE                     l4555:	
  3039                           ;PR23.c: 779: CCPR1L=230;
  3040  02FE  30E6               	movlw	(0E6h)
  3041  02FF  1283               	bcf	status, 5	;RP0=0, select bank0
  3042  0300  1303               	bcf	status, 6	;RP1=0, select bank0
  3043  0301  0095               	movwf	(21)	;volatile
  3044                           	line	780
  3045                           	
  3046  0302                     l4557:	
  3047                           ;PR23.c: 780: CCPR2L=230;
  3048  0302  30E6               	movlw	(0E6h)
  3049  0303  009B               	movwf	(27)	;volatile
  3050                           	line	781
  3051                           ;PR23.c: 781: }
  3052  0304  2A98               	goto	l4539
  3053                           	line	782
  3054                           	
  3055  0305                     l827:	
  3056                           	
  3057  0305                     l4559:	
  3058                           ;PR23.c: 782: else if(skps(7)==0)
  3059  0305  3007               	movlw	(07h)
  3060  0306  120A  158A  22B4   	fcall	_skps
              120A  118A         
  3061  030B  3800               	iorlw	0
  3062  030C  1D03               	skipz
  3063  030D  2B0F               	goto	u5581
  3064  030E  2B10               	goto	u5580
  3065  030F                     u5581:
  3066  030F  2B1C               	goto	l4567
  3067  0310                     u5580:
  3068                           	line	784
  3069                           	
  3070  0310                     l4561:	
  3071                           ;PR23.c: 783: {
  3072                           ;PR23.c: 784: left();
  3073  0310  120A  158A  2288   	fcall	_left
              120A  118A         
  3074                           	line	785
  3075                           	
  3076  0315                     l4563:	
  3077                           ;PR23.c: 785: CCPR1L=230;
  3078  0315  30E6               	movlw	(0E6h)
  3079  0316  1283               	bcf	status, 5	;RP0=0, select bank0
  3080  0317  1303               	bcf	status, 6	;RP1=0, select bank0
  3081  0318  0095               	movwf	(21)	;volatile
  3082                           	line	786
  3083                           	
  3084  0319                     l4565:	
  3085                           ;PR23.c: 786: CCPR2L=230;
  3086  0319  30E6               	movlw	(0E6h)
  3087  031A  009B               	movwf	(27)	;volatile
  3088                           	line	787
  3089                           ;PR23.c: 787: }
  3090  031B  2A98               	goto	l4539
  3091                           	line	788
  3092                           	
  3093  031C                     l829:	
  3094                           	
  3095  031C                     l4567:	
  3096                           ;PR23.c: 788: else if(skps(5)==0)
  3097  031C  3005               	movlw	(05h)
  3098  031D  120A  158A  22B4   	fcall	_skps
              120A  118A         
  3099  0322  3800               	iorlw	0
  3100  0323  1D03               	skipz
  3101  0324  2B26               	goto	u5591
  3102  0325  2B27               	goto	u5590
  3103  0326                     u5591:
  3104  0326  2B33               	goto	l4575
  3105  0327                     u5590:
  3106                           	line	790
  3107                           	
  3108  0327                     l4569:	
  3109                           ;PR23.c: 789: {
  3110                           ;PR23.c: 790: right();
  3111  0327  120A  158A  2281   	fcall	_right
              120A  118A         
  3112                           	line	791
  3113                           	
  3114  032C                     l4571:	
  3115                           ;PR23.c: 791: CCPR1L=230;
  3116  032C  30E6               	movlw	(0E6h)
  3117  032D  1283               	bcf	status, 5	;RP0=0, select bank0
  3118  032E  1303               	bcf	status, 6	;RP1=0, select bank0
  3119  032F  0095               	movwf	(21)	;volatile
  3120                           	line	792
  3121                           	
  3122  0330                     l4573:	
  3123                           ;PR23.c: 792: CCPR2L=230;
  3124  0330  30E6               	movlw	(0E6h)
  3125  0331  009B               	movwf	(27)	;volatile
  3126                           	line	793
  3127                           ;PR23.c: 793: }
  3128  0332  2A98               	goto	l4539
  3129                           	line	796
  3130                           	
  3131  0333                     l831:	
  3132                           	
  3133  0333                     l4575:	
  3134                           ;PR23.c: 796: else if(up_v>0)
  3135  0333  1283               	bcf	status, 5	;RP0=0, select bank0
  3136  0334  1303               	bcf	status, 6	;RP1=0, select bank0
  3137  0335  082C               	movf	(SKPS_PScon@up_v),w
  3138  0336  1D03               	skipz
  3139  0337  2B39               	goto	u5600
  3140  0338  2B77               	goto	l4601
  3141  0339                     u5600:
  3142                           	line	798
  3143                           	
  3144  0339                     l4577:	
  3145                           ;PR23.c: 797: {
  3146                           ;PR23.c: 798: forward();
  3147  0339  120A  158A  2273   	fcall	_forward
              120A  118A         
  3148                           	line	799
  3149                           	
  3150  033E                     l4579:	
  3151                           ;PR23.c: 799: if(left_v>0)
  3152  033E  1283               	bcf	status, 5	;RP0=0, select bank0
  3153  033F  1303               	bcf	status, 6	;RP1=0, select bank0
  3154  0340  082E               	movf	(SKPS_PScon@left_v),w
  3155  0341  1D03               	skipz
  3156  0342  2B44               	goto	u5610
  3157  0343  2B57               	goto	l4589
  3158  0344                     u5610:
  3159                           	line	801
  3160                           	
  3161  0344                     l4581:	
  3162                           ;PR23.c: 800: {
  3163                           ;PR23.c: 801: if(up_v>left_v)CCPR1L=up_v-left_v+140;
  3164  0344  082C               	movf	(SKPS_PScon@up_v),w
  3165  0345  022E               	subwf	(SKPS_PScon@left_v),w
  3166  0346  1803               	skipnc
  3167  0347  2B49               	goto	u5621
  3168  0348  2B4A               	goto	u5620
  3169  0349                     u5621:
  3170  0349  2B50               	goto	l4585
  3171  034A                     u5620:
  3172                           	
  3173  034A                     l4583:	
  3174  034A  032E               	decf	(SKPS_PScon@left_v),w
  3175  034B  3AFF               	xorlw	0ffh
  3176  034C  072C               	addwf	(SKPS_PScon@up_v),w
  3177  034D  3E8C               	addlw	08Ch
  3178  034E  0095               	movwf	(21)	;volatile
  3179  034F  2B53               	goto	l4587
  3180                           	line	802
  3181                           	
  3182  0350                     l835:	
  3183                           	
  3184  0350                     l4585:	
  3185                           ;PR23.c: 802: else CCPR1L=140;
  3186  0350  308C               	movlw	(08Ch)
  3187  0351  0095               	movwf	(21)	;volatile
  3188  0352  2B53               	goto	l4587
  3189                           	
  3190  0353                     l836:	
  3191                           	line	803
  3192                           	
  3193  0353                     l4587:	
  3194                           ;PR23.c: 803: CCPR2L=up_v+140;
  3195  0353  082C               	movf	(SKPS_PScon@up_v),w
  3196  0354  3E8C               	addlw	08Ch
  3197  0355  009B               	movwf	(27)	;volatile
  3198                           	line	804
  3199                           ;PR23.c: 804: }
  3200  0356  2A98               	goto	l4539
  3201                           	line	805
  3202                           	
  3203  0357                     l834:	
  3204                           	
  3205  0357                     l4589:	
  3206                           ;PR23.c: 805: else if(right_v>0)
  3207  0357  082F               	movf	(SKPS_PScon@right_v),w
  3208  0358  1D03               	skipz
  3209  0359  2B5B               	goto	u5630
  3210  035A  2B6E               	goto	l4599
  3211  035B                     u5630:
  3212                           	line	807
  3213                           	
  3214  035B                     l4591:	
  3215                           ;PR23.c: 806: {
  3216                           ;PR23.c: 807: if(up_v>right_v)CCPR2L=up_v-right_v+140;
  3217  035B  082C               	movf	(SKPS_PScon@up_v),w
  3218  035C  022F               	subwf	(SKPS_PScon@right_v),w
  3219  035D  1803               	skipnc
  3220  035E  2B60               	goto	u5641
  3221  035F  2B61               	goto	u5640
  3222  0360                     u5641:
  3223  0360  2B67               	goto	l4595
  3224  0361                     u5640:
  3225                           	
  3226  0361                     l4593:	
  3227  0361  032F               	decf	(SKPS_PScon@right_v),w
  3228  0362  3AFF               	xorlw	0ffh
  3229  0363  072C               	addwf	(SKPS_PScon@up_v),w
  3230  0364  3E8C               	addlw	08Ch
  3231  0365  009B               	movwf	(27)	;volatile
  3232  0366  2B6A               	goto	l4597
  3233                           	line	808
  3234                           	
  3235  0367                     l839:	
  3236                           	
  3237  0367                     l4595:	
  3238                           ;PR23.c: 808: else CCPR2L=140;
  3239  0367  308C               	movlw	(08Ch)
  3240  0368  009B               	movwf	(27)	;volatile
  3241  0369  2B6A               	goto	l4597
  3242                           	
  3243  036A                     l840:	
  3244                           	line	809
  3245                           	
  3246  036A                     l4597:	
  3247                           ;PR23.c: 809: CCPR1L=up_v+140;
  3248  036A  082C               	movf	(SKPS_PScon@up_v),w
  3249  036B  3E8C               	addlw	08Ch
  3250  036C  0095               	movwf	(21)	;volatile
  3251                           	line	810
  3252                           ;PR23.c: 810: }
  3253  036D  2A98               	goto	l4539
  3254                           	line	811
  3255                           	
  3256  036E                     l838:	
  3257                           	line	813
  3258                           	
  3259  036E                     l4599:	
  3260                           ;PR23.c: 811: else
  3261                           ;PR23.c: 812: {
  3262                           ;PR23.c: 813: CCPR1L=up_v+140;
  3263  036E  082C               	movf	(SKPS_PScon@up_v),w
  3264  036F  3E8C               	addlw	08Ch
  3265  0370  0095               	movwf	(21)	;volatile
  3266                           	line	814
  3267                           ;PR23.c: 814: CCPR2L=up_v+140;
  3268  0371  082C               	movf	(SKPS_PScon@up_v),w
  3269  0372  3E8C               	addlw	08Ch
  3270  0373  009B               	movwf	(27)	;volatile
  3271  0374  2A98               	goto	l4539
  3272                           	line	815
  3273                           	
  3274  0375                     l841:	
  3275  0375  2A98               	goto	l4539
  3276                           	
  3277  0376                     l837:	
  3278                           	line	816
  3279                           ;PR23.c: 815: }
  3280                           ;PR23.c: 816: }
  3281  0376  2A98               	goto	l4539
  3282                           	line	817
  3283                           	
  3284  0377                     l833:	
  3285                           	
  3286  0377                     l4601:	
  3287                           ;PR23.c: 817: else if(down_v>0)
  3288  0377  082D               	movf	(SKPS_PScon@down_v),w
  3289  0378  1D03               	skipz
  3290  0379  2B7B               	goto	u5650
  3291  037A  2BB9               	goto	l4627
  3292  037B                     u5650:
  3293                           	line	819
  3294                           	
  3295  037B                     l4603:	
  3296                           ;PR23.c: 818: {
  3297                           ;PR23.c: 819: backward();
  3298  037B  120A  158A  227A   	fcall	_backward
              120A  118A         
  3299                           	line	820
  3300                           	
  3301  0380                     l4605:	
  3302                           ;PR23.c: 820: if(left_v>0)
  3303  0380  1283               	bcf	status, 5	;RP0=0, select bank0
  3304  0381  1303               	bcf	status, 6	;RP1=0, select bank0
  3305  0382  082E               	movf	(SKPS_PScon@left_v),w
  3306  0383  1D03               	skipz
  3307  0384  2B86               	goto	u5660
  3308  0385  2B99               	goto	l4615
  3309  0386                     u5660:
  3310                           	line	822
  3311                           	
  3312  0386                     l4607:	
  3313                           ;PR23.c: 821: {
  3314                           ;PR23.c: 822: if(down_v>left_v)CCPR2L=down_v-left_v+140;
  3315  0386  082D               	movf	(SKPS_PScon@down_v),w
  3316  0387  022E               	subwf	(SKPS_PScon@left_v),w
  3317  0388  1803               	skipnc
  3318  0389  2B8B               	goto	u5671
  3319  038A  2B8C               	goto	u5670
  3320  038B                     u5671:
  3321  038B  2B92               	goto	l4611
  3322  038C                     u5670:
  3323                           	
  3324  038C                     l4609:	
  3325  038C  032E               	decf	(SKPS_PScon@left_v),w
  3326  038D  3AFF               	xorlw	0ffh
  3327  038E  072D               	addwf	(SKPS_PScon@down_v),w
  3328  038F  3E8C               	addlw	08Ch
  3329  0390  009B               	movwf	(27)	;volatile
  3330  0391  2B95               	goto	l4613
  3331                           	line	823
  3332                           	
  3333  0392                     l845:	
  3334                           	
  3335  0392                     l4611:	
  3336                           ;PR23.c: 823: else CCPR2L=140;
  3337  0392  308C               	movlw	(08Ch)
  3338  0393  009B               	movwf	(27)	;volatile
  3339  0394  2B95               	goto	l4613
  3340                           	
  3341  0395                     l846:	
  3342                           	line	824
  3343                           	
  3344  0395                     l4613:	
  3345                           ;PR23.c: 824: CCPR1L=down_v+140;
  3346  0395  082D               	movf	(SKPS_PScon@down_v),w
  3347  0396  3E8C               	addlw	08Ch
  3348  0397  0095               	movwf	(21)	;volatile
  3349                           	line	825
  3350                           ;PR23.c: 825: }
  3351  0398  2A98               	goto	l4539
  3352                           	line	826
  3353                           	
  3354  0399                     l844:	
  3355                           	
  3356  0399                     l4615:	
  3357                           ;PR23.c: 826: else if(right_v>0)
  3358  0399  082F               	movf	(SKPS_PScon@right_v),w
  3359  039A  1D03               	skipz
  3360  039B  2B9D               	goto	u5680
  3361  039C  2BB0               	goto	l4625
  3362  039D                     u5680:
  3363                           	line	828
  3364                           	
  3365  039D                     l4617:	
  3366                           ;PR23.c: 827: {
  3367                           ;PR23.c: 828: if(down_v>right_v)CCPR1L=down_v-right_v+140;
  3368  039D  082D               	movf	(SKPS_PScon@down_v),w
  3369  039E  022F               	subwf	(SKPS_PScon@right_v),w
  3370  039F  1803               	skipnc
  3371  03A0  2BA2               	goto	u5691
  3372  03A1  2BA3               	goto	u5690
  3373  03A2                     u5691:
  3374  03A2  2BA9               	goto	l4621
  3375  03A3                     u5690:
  3376                           	
  3377  03A3                     l4619:	
  3378  03A3  032F               	decf	(SKPS_PScon@right_v),w
  3379  03A4  3AFF               	xorlw	0ffh
  3380  03A5  072D               	addwf	(SKPS_PScon@down_v),w
  3381  03A6  3E8C               	addlw	08Ch
  3382  03A7  0095               	movwf	(21)	;volatile
  3383  03A8  2BAC               	goto	l4623
  3384                           	line	829
  3385                           	
  3386  03A9                     l849:	
  3387                           	
  3388  03A9                     l4621:	
  3389                           ;PR23.c: 829: else CCPR1L=140;
  3390  03A9  308C               	movlw	(08Ch)
  3391  03AA  0095               	movwf	(21)	;volatile
  3392  03AB  2BAC               	goto	l4623
  3393                           	
  3394  03AC                     l850:	
  3395                           	line	830
  3396                           	
  3397  03AC                     l4623:	
  3398                           ;PR23.c: 830: CCPR2L=down_v+140;
  3399  03AC  082D               	movf	(SKPS_PScon@down_v),w
  3400  03AD  3E8C               	addlw	08Ch
  3401  03AE  009B               	movwf	(27)	;volatile
  3402                           	line	831
  3403                           ;PR23.c: 831: }
  3404  03AF  2A98               	goto	l4539
  3405                           	line	832
  3406                           	
  3407  03B0                     l848:	
  3408                           	line	834
  3409                           	
  3410  03B0                     l4625:	
  3411                           ;PR23.c: 832: else
  3412                           ;PR23.c: 833: {
  3413                           ;PR23.c: 834: CCPR1L=down_v+140;
  3414  03B0  082D               	movf	(SKPS_PScon@down_v),w
  3415  03B1  3E8C               	addlw	08Ch
  3416  03B2  0095               	movwf	(21)	;volatile
  3417                           	line	835
  3418                           ;PR23.c: 835: CCPR2L=down_v+140;
  3419  03B3  082D               	movf	(SKPS_PScon@down_v),w
  3420  03B4  3E8C               	addlw	08Ch
  3421  03B5  009B               	movwf	(27)	;volatile
  3422  03B6  2A98               	goto	l4539
  3423                           	line	836
  3424                           	
  3425  03B7                     l851:	
  3426  03B7  2A98               	goto	l4539
  3427                           	
  3428  03B8                     l847:	
  3429                           	line	837
  3430                           ;PR23.c: 836: }
  3431                           ;PR23.c: 837: }
  3432  03B8  2A98               	goto	l4539
  3433                           	line	838
  3434                           	
  3435  03B9                     l843:	
  3436                           	
  3437  03B9                     l4627:	
  3438                           ;PR23.c: 838: else if(left_v>0)
  3439  03B9  082E               	movf	(SKPS_PScon@left_v),w
  3440  03BA  1D03               	skipz
  3441  03BB  2BBD               	goto	u5700
  3442  03BC  2BCB               	goto	l4635
  3443  03BD                     u5700:
  3444                           	line	840
  3445                           	
  3446  03BD                     l4629:	
  3447                           ;PR23.c: 839: {
  3448                           ;PR23.c: 840: left();
  3449  03BD  120A  158A  2288   	fcall	_left
              120A  118A         
  3450                           	line	841
  3451                           	
  3452  03C2                     l4631:	
  3453                           ;PR23.c: 841: CCPR1L=left_v+120;
  3454  03C2  1283               	bcf	status, 5	;RP0=0, select bank0
  3455  03C3  1303               	bcf	status, 6	;RP1=0, select bank0
  3456  03C4  082E               	movf	(SKPS_PScon@left_v),w
  3457  03C5  3E78               	addlw	078h
  3458  03C6  0095               	movwf	(21)	;volatile
  3459                           	line	842
  3460                           	
  3461  03C7                     l4633:	
  3462                           ;PR23.c: 842: CCPR2L=left_v+120;
  3463  03C7  082E               	movf	(SKPS_PScon@left_v),w
  3464  03C8  3E78               	addlw	078h
  3465  03C9  009B               	movwf	(27)	;volatile
  3466                           	line	843
  3467                           ;PR23.c: 843: }
  3468  03CA  2A98               	goto	l4539
  3469                           	line	844
  3470                           	
  3471  03CB                     l853:	
  3472                           	
  3473  03CB                     l4635:	
  3474                           ;PR23.c: 844: else if(right_v>0)
  3475  03CB  082F               	movf	(SKPS_PScon@right_v),w
  3476  03CC  1D03               	skipz
  3477  03CD  2BCF               	goto	u5710
  3478  03CE  2BDD               	goto	l4643
  3479  03CF                     u5710:
  3480                           	line	846
  3481                           	
  3482  03CF                     l4637:	
  3483                           ;PR23.c: 845: {
  3484                           ;PR23.c: 846: right();
  3485  03CF  120A  158A  2281   	fcall	_right
              120A  118A         
  3486                           	line	847
  3487                           	
  3488  03D4                     l4639:	
  3489                           ;PR23.c: 847: CCPR1L=right_v+120;
  3490  03D4  1283               	bcf	status, 5	;RP0=0, select bank0
  3491  03D5  1303               	bcf	status, 6	;RP1=0, select bank0
  3492  03D6  082F               	movf	(SKPS_PScon@right_v),w
  3493  03D7  3E78               	addlw	078h
  3494  03D8  0095               	movwf	(21)	;volatile
  3495                           	line	848
  3496                           	
  3497  03D9                     l4641:	
  3498                           ;PR23.c: 848: CCPR2L=right_v+120;
  3499  03D9  082F               	movf	(SKPS_PScon@right_v),w
  3500  03DA  3E78               	addlw	078h
  3501  03DB  009B               	movwf	(27)	;volatile
  3502                           	line	849
  3503                           ;PR23.c: 849: }
  3504  03DC  2A98               	goto	l4539
  3505                           	line	850
  3506                           	
  3507  03DD                     l855:	
  3508                           	line	852
  3509                           	
  3510  03DD                     l4643:	
  3511                           ;PR23.c: 850: else
  3512                           ;PR23.c: 851: {
  3513                           ;PR23.c: 852: stop();
  3514  03DD  120A  158A  226C   	fcall	_stop
              120A  118A         
  3515                           	line	853
  3516                           	
  3517  03E2                     l4645:	
  3518                           ;PR23.c: 853: CCPR1L=255;
  3519  03E2  30FF               	movlw	(0FFh)
  3520  03E3  1283               	bcf	status, 5	;RP0=0, select bank0
  3521  03E4  1303               	bcf	status, 6	;RP1=0, select bank0
  3522  03E5  0095               	movwf	(21)	;volatile
  3523                           	line	854
  3524                           	
  3525  03E6                     l4647:	
  3526                           ;PR23.c: 854: CCPR2L=255;
  3527  03E6  30FF               	movlw	(0FFh)
  3528  03E7  009B               	movwf	(27)	;volatile
  3529  03E8  2A98               	goto	l4539
  3530                           	line	855
  3531                           	
  3532  03E9                     l856:	
  3533  03E9  2A98               	goto	l4539
  3534                           	
  3535  03EA                     l854:	
  3536  03EA  2A98               	goto	l4539
  3537                           	
  3538  03EB                     l852:	
  3539  03EB  2A98               	goto	l4539
  3540                           	
  3541  03EC                     l842:	
  3542  03EC  2A98               	goto	l4539
  3543                           	
  3544  03ED                     l832:	
  3545  03ED  2A98               	goto	l4539
  3546                           	
  3547  03EE                     l830:	
  3548  03EE  2A98               	goto	l4539
  3549                           	
  3550  03EF                     l828:	
  3551  03EF  2A98               	goto	l4539
  3552                           	
  3553  03F0                     l826:	
  3554  03F0  2A98               	goto	l4539
  3555                           	line	856
  3556                           	
  3557  03F1                     l857:	
  3558                           	line	757
  3559  03F1  2A98               	goto	l4539
  3560                           	
  3561  03F2                     l858:	
  3562                           	line	857
  3563                           	
  3564  03F2                     l859:	
  3565  03F2  0008               	return
  3566                           	opt stack 0
  3567                           GLOBAL	__end_of_SKPS_PScon
  3568  03F3                     	__end_of_SKPS_PScon:
  3569 ;; =============== function _SKPS_PScon ends ============
  3570                           
  3571                           	signat	_SKPS_PScon,88
  3572                           	global	_wireless_xbee
  3573                           psect	text1058,local,class=CODE,delta=2
  3574                           global __ptext1058
  3575  0732                     __ptext1058:
  3576                           
  3577 ;; *************** function _wireless_xbee *****************
  3578 ;; Defined at:
  3579 ;;		line 682 in file "PR23.c"
  3580 ;; Parameters:    Size  Location     Type
  3581 ;;		None
  3582 ;; Auto vars:     Size  Location     Type
  3583 ;;		None
  3584 ;; Return value:  Size  Location     Type
  3585 ;;		None               void
  3586 ;; Registers used:
  3587 ;;		wreg, fsr0l, fsr0h, status,2, status,0, btemp+1, pclath, cstack
  3588 ;; Tracked objects:
  3589 ;;		On entry : 0/0
  3590 ;;		On exit  : 0/0
  3591 ;;		Unchanged: 0/0
  3592 ;; Data sizes:     COMMON   BANK0   BANK1   BANK3   BANK2
  3593 ;;      Params:         0       0       0       0       0
  3594 ;;      Locals:         0       0       0       0       0
  3595 ;;      Temps:          0       0       0       0       0
  3596 ;;      Totals:         0       0       0       0       0
  3597 ;;Total ram usage:        0 bytes
  3598 ;; Hardware stack levels used:    1
  3599 ;; Hardware stack levels required when called:    5
  3600 ;; This function calls:
  3601 ;;		_lcd_clr
  3602 ;;		_lcd_goto
  3603 ;;		_send_string
  3604 ;;		_forward
  3605 ;;		_backward
  3606 ;;		_right
  3607 ;;		_left
  3608 ;;		_stop
  3609 ;; This function is called by:
  3610 ;;		_main
  3611 ;; This function uses a non-reentrant model
  3612 ;;
  3613                           psect	text1058
  3614                           	file	"PR23.c"
  3615                           	line	682
  3616                           	global	__size_of_wireless_xbee
  3617  00CD                     	__size_of_wireless_xbee	equ	__end_of_wireless_xbee-_wireless_xbee
  3618                           	
  3619  0732                     _wireless_xbee:	
  3620                           	opt	stack 2
  3621                           ; Regs used in _wireless_xbee: [wreg-fsr0h+status,2+status,0+btemp+1+pclath+cstack]
  3622                           	line	683
  3623                           	
  3624  0732                     l4477:	
  3625                           ;PR23.c: 683: lcd_clr();
  3626  0732  120A  158A  22D5   	fcall	_lcd_clr
              120A  118A         
  3627                           	line	684
  3628                           ;PR23.c: 684: while(1)
  3629                           	
  3630  0737                     l801:	
  3631                           	line	686
  3632                           ;PR23.c: 685: {
  3633                           ;PR23.c: 686: lcd_goto (0);
  3634  0737  3000               	movlw	(0)
  3635  0738  120A  158A  233E   	fcall	_lcd_goto
              120A  118A         
  3636                           	line	687
  3637                           	
  3638  073D                     l4479:	
  3639                           ;PR23.c: 687: if (data[0] == 100)
  3640  073D  1283               	bcf	status, 5	;RP0=0, select bank0
  3641  073E  1303               	bcf	status, 6	;RP1=0, select bank0
  3642  073F  0849               	movf	(_data),w
  3643  0740  3A64               	xorlw	064h
  3644  0741  1D03               	skipz
  3645  0742  2F44               	goto	u5491
  3646  0743  2F45               	goto	u5490
  3647  0744                     u5491:
  3648  0744  2FF0               	goto	l4523
  3649  0745                     u5490:
  3650                           	line	689
  3651                           	
  3652  0745                     l4481:	
  3653                           ;PR23.c: 688: {
  3654                           ;PR23.c: 689: send_string("  XBEE CONTROL  ");
  3655  0745  3092               	movlw	low(STR_20|8000h)
  3656  0746  00A9               	movwf	(?_send_string)
  3657  0747  3090               	movlw	high(STR_20|8000h)
  3658  0748  00AA               	movwf	((?_send_string))+1
  3659  0749  120A  158A  2411   	fcall	_send_string
              120A  118A         
  3660                           	line	690
  3661                           	
  3662  074E                     l4483:	
  3663                           ;PR23.c: 690: CCPR1L = 200;
  3664  074E  30C8               	movlw	(0C8h)
  3665  074F  1283               	bcf	status, 5	;RP0=0, select bank0
  3666  0750  1303               	bcf	status, 6	;RP1=0, select bank0
  3667  0751  0095               	movwf	(21)	;volatile
  3668                           	line	691
  3669                           	
  3670  0752                     l4485:	
  3671                           ;PR23.c: 691: CCPR2L = 200;
  3672  0752  30C8               	movlw	(0C8h)
  3673  0753  009B               	movwf	(27)	;volatile
  3674  0754  2F55               	goto	l4487
  3675                           	line	692
  3676                           ;PR23.c: 692: while(1)
  3677                           	
  3678  0755                     l803:	
  3679                           	line	694
  3680                           	
  3681  0755                     l4487:	
  3682                           ;PR23.c: 693: {
  3683                           ;PR23.c: 694: lcd_goto(20);
  3684  0755  3014               	movlw	(014h)
  3685  0756  120A  158A  233E   	fcall	_lcd_goto
              120A  118A         
  3686                           	line	695
  3687                           	
  3688  075B                     l4489:	
  3689                           ;PR23.c: 695: if (RCREG == '8')
  3690  075B  1283               	bcf	status, 5	;RP0=0, select bank0
  3691  075C  1303               	bcf	status, 6	;RP1=0, select bank0
  3692  075D  081A               	movf	(26),w	;volatile
  3693  075E  3A38               	xorlw	038h
  3694  075F  1D03               	skipz
  3695  0760  2F62               	goto	u5501
  3696  0761  2F63               	goto	u5500
  3697  0762                     u5501:
  3698  0762  2F74               	goto	l4495
  3699  0763                     u5500:
  3700                           	line	697
  3701                           	
  3702  0763                     l4491:	
  3703                           ;PR23.c: 696: {
  3704                           ;PR23.c: 697: forward();
  3705  0763  120A  158A  2273   	fcall	_forward
              120A  118A         
  3706                           	line	698
  3707                           	
  3708  0768                     l4493:	
  3709                           ;PR23.c: 698: send_string("FORWARD        ");
  3710  0768  30B4               	movlw	low(STR_21|8000h)
  3711  0769  1283               	bcf	status, 5	;RP0=0, select bank0
  3712  076A  1303               	bcf	status, 6	;RP1=0, select bank0
  3713  076B  00A9               	movwf	(?_send_string)
  3714  076C  3090               	movlw	high(STR_21|8000h)
  3715  076D  00AA               	movwf	((?_send_string))+1
  3716  076E  120A  158A  2411   	fcall	_send_string
              120A  118A         
  3717                           	line	699
  3718                           ;PR23.c: 699: }
  3719  0773  2F55               	goto	l4487
  3720                           	line	701
  3721                           	
  3722  0774                     l804:	
  3723                           	
  3724  0774                     l4495:	
  3725                           ;PR23.c: 701: else if (RCREG == '2')
  3726  0774  1283               	bcf	status, 5	;RP0=0, select bank0
  3727  0775  1303               	bcf	status, 6	;RP1=0, select bank0
  3728  0776  081A               	movf	(26),w	;volatile
  3729  0777  3A32               	xorlw	032h
  3730  0778  1D03               	skipz
  3731  0779  2F7B               	goto	u5511
  3732  077A  2F7C               	goto	u5510
  3733  077B                     u5511:
  3734  077B  2F8D               	goto	l4501
  3735  077C                     u5510:
  3736                           	line	703
  3737                           	
  3738  077C                     l4497:	
  3739                           ;PR23.c: 702: {
  3740                           ;PR23.c: 703: backward();
  3741  077C  120A  158A  227A   	fcall	_backward
              120A  118A         
  3742                           	line	704
  3743                           	
  3744  0781                     l4499:	
  3745                           ;PR23.c: 704: send_string("BACKWARD        ");
  3746  0781  305F               	movlw	low(STR_22|8000h)
  3747  0782  1283               	bcf	status, 5	;RP0=0, select bank0
  3748  0783  1303               	bcf	status, 6	;RP1=0, select bank0
  3749  0784  00A9               	movwf	(?_send_string)
  3750  0785  3090               	movlw	high(STR_22|8000h)
  3751  0786  00AA               	movwf	((?_send_string))+1
  3752  0787  120A  158A  2411   	fcall	_send_string
              120A  118A         
  3753                           	line	705
  3754                           ;PR23.c: 705: }
  3755  078C  2F55               	goto	l4487
  3756                           	line	706
  3757                           	
  3758  078D                     l806:	
  3759                           	
  3760  078D                     l4501:	
  3761                           ;PR23.c: 706: else if (RCREG == '6')
  3762  078D  1283               	bcf	status, 5	;RP0=0, select bank0
  3763  078E  1303               	bcf	status, 6	;RP1=0, select bank0
  3764  078F  081A               	movf	(26),w	;volatile
  3765  0790  3A36               	xorlw	036h
  3766  0791  1D03               	skipz
  3767  0792  2F94               	goto	u5521
  3768  0793  2F95               	goto	u5520
  3769  0794                     u5521:
  3770  0794  2FA6               	goto	l4507
  3771  0795                     u5520:
  3772                           	line	708
  3773                           	
  3774  0795                     l4503:	
  3775                           ;PR23.c: 707: {
  3776                           ;PR23.c: 708: right();
  3777  0795  120A  158A  2281   	fcall	_right
              120A  118A         
  3778                           	line	709
  3779                           	
  3780  079A                     l4505:	
  3781                           ;PR23.c: 709: send_string("TURN RIGHT      ");
  3782  079A  3081               	movlw	low(STR_23|8000h)
  3783  079B  1283               	bcf	status, 5	;RP0=0, select bank0
  3784  079C  1303               	bcf	status, 6	;RP1=0, select bank0
  3785  079D  00A9               	movwf	(?_send_string)
  3786  079E  3090               	movlw	high(STR_23|8000h)
  3787  079F  00AA               	movwf	((?_send_string))+1
  3788  07A0  120A  158A  2411   	fcall	_send_string
              120A  118A         
  3789                           	line	710
  3790                           ;PR23.c: 710: }
  3791  07A5  2F55               	goto	l4487
  3792                           	line	712
  3793                           	
  3794  07A6                     l808:	
  3795                           	
  3796  07A6                     l4507:	
  3797                           ;PR23.c: 712: else if (RCREG == '4')
  3798  07A6  1283               	bcf	status, 5	;RP0=0, select bank0
  3799  07A7  1303               	bcf	status, 6	;RP1=0, select bank0
  3800  07A8  081A               	movf	(26),w	;volatile
  3801  07A9  3A34               	xorlw	034h
  3802  07AA  1D03               	skipz
  3803  07AB  2FAD               	goto	u5531
  3804  07AC  2FAE               	goto	u5530
  3805  07AD                     u5531:
  3806  07AD  2FBF               	goto	l4513
  3807  07AE                     u5530:
  3808                           	line	714
  3809                           	
  3810  07AE                     l4509:	
  3811                           ;PR23.c: 713: {
  3812                           ;PR23.c: 714: left();
  3813  07AE  120A  158A  2288   	fcall	_left
              120A  118A         
  3814                           	line	715
  3815                           	
  3816  07B3                     l4511:	
  3817                           ;PR23.c: 715: send_string("TURN LEFT       ");
  3818  07B3  3070               	movlw	low(STR_24|8000h)
  3819  07B4  1283               	bcf	status, 5	;RP0=0, select bank0
  3820  07B5  1303               	bcf	status, 6	;RP1=0, select bank0
  3821  07B6  00A9               	movwf	(?_send_string)
  3822  07B7  3090               	movlw	high(STR_24|8000h)
  3823  07B8  00AA               	movwf	((?_send_string))+1
  3824  07B9  120A  158A  2411   	fcall	_send_string
              120A  118A         
  3825                           	line	716
  3826                           ;PR23.c: 716: }
  3827  07BE  2F55               	goto	l4487
  3828                           	line	718
  3829                           	
  3830  07BF                     l810:	
  3831                           	
  3832  07BF                     l4513:	
  3833                           ;PR23.c: 718: else if (RCREG == '5')
  3834  07BF  1283               	bcf	status, 5	;RP0=0, select bank0
  3835  07C0  1303               	bcf	status, 6	;RP1=0, select bank0
  3836  07C1  081A               	movf	(26),w	;volatile
  3837  07C2  3A35               	xorlw	035h
  3838  07C3  1D03               	skipz
  3839  07C4  2FC6               	goto	u5541
  3840  07C5  2FC7               	goto	u5540
  3841  07C6                     u5541:
  3842  07C6  2FD8               	goto	l4519
  3843  07C7                     u5540:
  3844                           	line	720
  3845                           	
  3846  07C7                     l4515:	
  3847                           ;PR23.c: 719: {
  3848                           ;PR23.c: 720: stop();
  3849  07C7  120A  158A  226C   	fcall	_stop
              120A  118A         
  3850                           	line	721
  3851                           	
  3852  07CC                     l4517:	
  3853                           ;PR23.c: 721: send_string("INVALID COMMAND  ");
  3854  07CC  304D               	movlw	low(STR_25|8000h)
  3855  07CD  1283               	bcf	status, 5	;RP0=0, select bank0
  3856  07CE  1303               	bcf	status, 6	;RP1=0, select bank0
  3857  07CF  00A9               	movwf	(?_send_string)
  3858  07D0  3090               	movlw	high(STR_25|8000h)
  3859  07D1  00AA               	movwf	((?_send_string))+1
  3860  07D2  120A  158A  2411   	fcall	_send_string
              120A  118A         
  3861                           	line	722
  3862                           ;PR23.c: 722: }
  3863  07D7  2F55               	goto	l4487
  3864                           	line	724
  3865                           	
  3866  07D8                     l812:	
  3867                           	line	726
  3868                           	
  3869  07D8                     l4519:	
  3870                           ;PR23.c: 724: else
  3871                           ;PR23.c: 725: {
  3872                           ;PR23.c: 726: stop();
  3873  07D8  120A  158A  226C   	fcall	_stop
              120A  118A         
  3874                           	line	727
  3875                           	
  3876  07DD                     l4521:	
  3877                           ;PR23.c: 727: send_string("INVALID COMMAND  ");
  3878  07DD  304D               	movlw	low(STR_26|8000h)
  3879  07DE  1283               	bcf	status, 5	;RP0=0, select bank0
  3880  07DF  1303               	bcf	status, 6	;RP1=0, select bank0
  3881  07E0  00A9               	movwf	(?_send_string)
  3882  07E1  3090               	movlw	high(STR_26|8000h)
  3883  07E2  00AA               	movwf	((?_send_string))+1
  3884  07E3  120A  158A  2411   	fcall	_send_string
              120A  118A         
  3885  07E8  2F55               	goto	l4487
  3886                           	line	728
  3887                           	
  3888  07E9                     l813:	
  3889  07E9  2F55               	goto	l4487
  3890                           	
  3891  07EA                     l811:	
  3892  07EA  2F55               	goto	l4487
  3893                           	
  3894  07EB                     l809:	
  3895  07EB  2F55               	goto	l4487
  3896                           	
  3897  07EC                     l807:	
  3898  07EC  2F55               	goto	l4487
  3899                           	
  3900  07ED                     l805:	
  3901  07ED  2F55               	goto	l4487
  3902                           	line	729
  3903                           	
  3904  07EE                     l814:	
  3905                           	line	692
  3906  07EE  2F55               	goto	l4487
  3907                           	
  3908  07EF                     l815:	
  3909                           	line	730
  3910                           ;PR23.c: 728: }
  3911                           ;PR23.c: 729: }
  3912                           ;PR23.c: 730: }
  3913  07EF  2F37               	goto	l801
  3914                           	line	731
  3915                           	
  3916  07F0                     l802:	
  3917                           	
  3918  07F0                     l4523:	
  3919                           ;PR23.c: 731: else send_string("COMMAND");
  3920  07F0  304B               	movlw	low(STR_27|8000h)
  3921  07F1  1283               	bcf	status, 5	;RP0=0, select bank0
  3922  07F2  1303               	bcf	status, 6	;RP1=0, select bank0
  3923  07F3  00A9               	movwf	(?_send_string)
  3924  07F4  3091               	movlw	high(STR_27|8000h)
  3925  07F5  00AA               	movwf	((?_send_string))+1
  3926  07F6  120A  158A  2411   	fcall	_send_string
              120A  118A         
  3927  07FB  2F37               	goto	l801
  3928                           	
  3929  07FC                     l816:	
  3930  07FC  2F37               	goto	l801
  3931                           	line	732
  3932                           	
  3933  07FD                     l817:	
  3934                           	line	684
  3935  07FD  2F37               	goto	l801
  3936                           	
  3937  07FE                     l818:	
  3938                           	line	733
  3939                           	
  3940  07FE                     l819:	
  3941  07FE  0008               	return
  3942                           	opt stack 0
  3943                           GLOBAL	__end_of_wireless_xbee
  3944  07FF                     	__end_of_wireless_xbee:
  3945 ;; =============== function _wireless_xbee ends ============
  3946                           
  3947                           	signat	_wireless_xbee,88
  3948                           	global	_analog_sen
  3949                           psect	text1059,local,class=CODE,delta=2
  3950                           global __ptext1059
  3951  0ED7                     __ptext1059:
  3952                           
  3953 ;; *************** function _analog_sen *****************
  3954 ;; Defined at:
  3955 ;;		line 636 in file "PR23.c"
  3956 ;; Parameters:    Size  Location     Type
  3957 ;;		None
  3958 ;; Auto vars:     Size  Location     Type
  3959 ;;  distance        2   25[BANK0 ] int 
  3960 ;; Return value:  Size  Location     Type
  3961 ;;		None               void
  3962 ;; Registers used:
  3963 ;;		wreg, fsr0l, fsr0h, status,2, status,0, btemp+1, pclath, cstack
  3964 ;; Tracked objects:
  3965 ;;		On entry : 0/0
  3966 ;;		On exit  : 0/0
  3967 ;;		Unchanged: 0/0
  3968 ;; Data sizes:     COMMON   BANK0   BANK1   BANK3   BANK2
  3969 ;;      Params:         0       0       0       0       0
  3970 ;;      Locals:         0       2       0       0       0
  3971 ;;      Temps:          0       0       0       0       0
  3972 ;;      Totals:         0       2       0       0       0
  3973 ;;Total ram usage:        2 bytes
  3974 ;; Hardware stack levels used:    1
  3975 ;; Hardware stack levels required when called:    5
  3976 ;; This function calls:
  3977 ;;		_lcd_clr
  3978 ;;		_send_string
  3979 ;;		_lcd_goto
  3980 ;;		_read_adc
  3981 ;;		_dis_num
  3982 ;;		_backward
  3983 ;;		_stop
  3984 ;;		_forward
  3985 ;; This function is called by:
  3986 ;;		_main
  3987 ;; This function uses a non-reentrant model
  3988 ;;
  3989                           psect	text1059
  3990                           	file	"PR23.c"
  3991                           	line	636
  3992                           	global	__size_of_analog_sen
  3993  0092                     	__size_of_analog_sen	equ	__end_of_analog_sen-_analog_sen
  3994                           	
  3995  0ED7                     _analog_sen:	
  3996                           	opt	stack 2
  3997                           ; Regs used in _analog_sen: [wreg-fsr0h+status,2+status,0+btemp+1+pclath+cstack]
  3998                           	line	638
  3999                           	
  4000  0ED7                     l4431:	
  4001                           ;PR23.c: 637: int distance;
  4002                           ;PR23.c: 638: lcd_clr();
  4003  0ED7  120A  158A  22D5   	fcall	_lcd_clr
              120A  158A         
  4004                           	line	639
  4005                           	
  4006  0EDC                     l4433:	
  4007                           ;PR23.c: 639: send_string("Distance");
  4008  0EDC  3021               	movlw	low(STR_19|8000h)
  4009  0EDD  1283               	bcf	status, 5	;RP0=0, select bank0
  4010  0EDE  1303               	bcf	status, 6	;RP1=0, select bank0
  4011  0EDF  00A9               	movwf	(?_send_string)
  4012  0EE0  3091               	movlw	high(STR_19|8000h)
  4013  0EE1  00AA               	movwf	((?_send_string))+1
  4014  0EE2  120A  158A  2411   	fcall	_send_string
              120A  158A         
  4015  0EE7  2EE8               	goto	l4435
  4016                           	line	641
  4017                           ;PR23.c: 641: while(1)
  4018                           	
  4019  0EE8                     l789:	
  4020                           	line	643
  4021                           	
  4022  0EE8                     l4435:	
  4023                           ;PR23.c: 642: {
  4024                           ;PR23.c: 643: lcd_goto(20);
  4025  0EE8  3014               	movlw	(014h)
  4026  0EE9  120A  158A  233E   	fcall	_lcd_goto
              120A  158A         
  4027                           	line	644
  4028                           	
  4029  0EEE                     l4437:	
  4030                           ;PR23.c: 644: read_adc(0b10001001);
  4031  0EEE  3089               	movlw	(089h)
  4032  0EEF  120A  158A  2769   	fcall	_read_adc
              120A  158A         
  4033                           	line	645
  4034                           	
  4035  0EF4                     l4439:	
  4036                           ;PR23.c: 645: distance = result;
  4037  0EF4  1283               	bcf	status, 5	;RP0=0, select bank0
  4038  0EF5  1303               	bcf	status, 6	;RP1=0, select bank0
  4039  0EF6  0854               	movf	(_result+1),w
  4040  0EF7  01BA               	clrf	(analog_sen@distance+1)
  4041  0EF8  07BA               	addwf	(analog_sen@distance+1)
  4042  0EF9  0853               	movf	(_result),w
  4043  0EFA  01B9               	clrf	(analog_sen@distance)
  4044  0EFB  07B9               	addwf	(analog_sen@distance)
  4045                           
  4046                           	line	646
  4047                           	
  4048  0EFC                     l4441:	
  4049                           ;PR23.c: 646: dis_num(result);
  4050  0EFC  0853               	movf	(_result),w
  4051  0EFD  00AE               	movwf	(?_dis_num)
  4052  0EFE  0854               	movf	(_result+1),w
  4053  0EFF  00AF               	movwf	((?_dis_num))+1
  4054  0F00  01B0               	clrf	2+((?_dis_num))
  4055  0F01  01B1               	clrf	3+((?_dis_num))
  4056  0F02  120A  118A  23F3   	fcall	_dis_num
              120A  158A         
  4057                           	line	648
  4058                           	
  4059  0F07                     l4443:	
  4060                           ;PR23.c: 648: if (distance< 200)
  4061  0F07  1283               	bcf	status, 5	;RP0=0, select bank0
  4062  0F08  1303               	bcf	status, 6	;RP1=0, select bank0
  4063  0F09  083A               	movf	(analog_sen@distance+1),w
  4064  0F0A  3A80               	xorlw	80h
  4065  0F0B  00FF               	movwf	btemp+1
  4066  0F0C  3080               	movlw	(high(0C8h))^80h
  4067  0F0D  027F               	subwf	btemp+1,w
  4068  0F0E  1D03               	skipz
  4069  0F0F  2F12               	goto	u5465
  4070  0F10  30C8               	movlw	low(0C8h)
  4071  0F11  0239               	subwf	(analog_sen@distance),w
  4072  0F12                     u5465:
  4073                           
  4074  0F12  1803               	skipnc
  4075  0F13  2F15               	goto	u5461
  4076  0F14  2F16               	goto	u5460
  4077  0F15                     u5461:
  4078  0F15  2F23               	goto	l4453
  4079  0F16                     u5460:
  4080                           	line	650
  4081                           	
  4082  0F16                     l4445:	
  4083                           ;PR23.c: 649: {
  4084                           ;PR23.c: 650: backward();
  4085  0F16  120A  158A  227A   	fcall	_backward
              120A  158A         
  4086                           	line	651
  4087                           	
  4088  0F1B                     l4447:	
  4089                           ;PR23.c: 651: CCPR1L = 255;
  4090  0F1B  30FF               	movlw	(0FFh)
  4091  0F1C  1283               	bcf	status, 5	;RP0=0, select bank0
  4092  0F1D  1303               	bcf	status, 6	;RP1=0, select bank0
  4093  0F1E  0095               	movwf	(21)	;volatile
  4094                           	line	652
  4095                           	
  4096  0F1F                     l4449:	
  4097                           ;PR23.c: 652: CCPR2L = 255;
  4098  0F1F  30FF               	movlw	(0FFh)
  4099  0F20  009B               	movwf	(27)	;volatile
  4100                           	line	653
  4101                           	
  4102  0F21                     l4451:	
  4103                           ;PR23.c: 653: RE2 = 0;
  4104  0F21  1109               	bcf	(74/8),(74)&7
  4105                           	line	654
  4106                           ;PR23.c: 654: }
  4107  0F22  2EE8               	goto	l4435
  4108                           	line	655
  4109                           	
  4110  0F23                     l790:	
  4111                           	
  4112  0F23                     l4453:	
  4113                           ;PR23.c: 655: else if (distance< 250)
  4114  0F23  1283               	bcf	status, 5	;RP0=0, select bank0
  4115  0F24  1303               	bcf	status, 6	;RP1=0, select bank0
  4116  0F25  083A               	movf	(analog_sen@distance+1),w
  4117  0F26  3A80               	xorlw	80h
  4118  0F27  00FF               	movwf	btemp+1
  4119  0F28  3080               	movlw	(high(0FAh))^80h
  4120  0F29  027F               	subwf	btemp+1,w
  4121  0F2A  1D03               	skipz
  4122  0F2B  2F2E               	goto	u5475
  4123  0F2C  30FA               	movlw	low(0FAh)
  4124  0F2D  0239               	subwf	(analog_sen@distance),w
  4125  0F2E                     u5475:
  4126                           
  4127  0F2E  1803               	skipnc
  4128  0F2F  2F31               	goto	u5471
  4129  0F30  2F32               	goto	u5470
  4130  0F31                     u5471:
  4131  0F31  2F3F               	goto	l4463
  4132  0F32                     u5470:
  4133                           	line	657
  4134                           	
  4135  0F32                     l4455:	
  4136                           ;PR23.c: 656: {
  4137                           ;PR23.c: 657: backward();
  4138  0F32  120A  158A  227A   	fcall	_backward
              120A  158A         
  4139                           	line	658
  4140                           	
  4141  0F37                     l4457:	
  4142                           ;PR23.c: 658: CCPR1L = 230;
  4143  0F37  30E6               	movlw	(0E6h)
  4144  0F38  1283               	bcf	status, 5	;RP0=0, select bank0
  4145  0F39  1303               	bcf	status, 6	;RP1=0, select bank0
  4146  0F3A  0095               	movwf	(21)	;volatile
  4147                           	line	659
  4148                           	
  4149  0F3B                     l4459:	
  4150                           ;PR23.c: 659: CCPR2L = 230;
  4151  0F3B  30E6               	movlw	(0E6h)
  4152  0F3C  009B               	movwf	(27)	;volatile
  4153                           	line	660
  4154                           	
  4155  0F3D                     l4461:	
  4156                           ;PR23.c: 660: RE2 = 0;
  4157  0F3D  1109               	bcf	(74/8),(74)&7
  4158                           	line	661
  4159                           ;PR23.c: 661: }
  4160  0F3E  2EE8               	goto	l4435
  4161                           	line	662
  4162                           	
  4163  0F3F                     l792:	
  4164                           	
  4165  0F3F                     l4463:	
  4166                           ;PR23.c: 662: else if( distance < 300)
  4167  0F3F  1283               	bcf	status, 5	;RP0=0, select bank0
  4168  0F40  1303               	bcf	status, 6	;RP1=0, select bank0
  4169  0F41  083A               	movf	(analog_sen@distance+1),w
  4170  0F42  3A80               	xorlw	80h
  4171  0F43  00FF               	movwf	btemp+1
  4172  0F44  3081               	movlw	(high(012Ch))^80h
  4173  0F45  027F               	subwf	btemp+1,w
  4174  0F46  1D03               	skipz
  4175  0F47  2F4A               	goto	u5485
  4176  0F48  302C               	movlw	low(012Ch)
  4177  0F49  0239               	subwf	(analog_sen@distance),w
  4178  0F4A                     u5485:
  4179                           
  4180  0F4A  1803               	skipnc
  4181  0F4B  2F4D               	goto	u5481
  4182  0F4C  2F4E               	goto	u5480
  4183  0F4D                     u5481:
  4184  0F4D  2F57               	goto	l4469
  4185  0F4E                     u5480:
  4186                           	line	664
  4187                           	
  4188  0F4E                     l4465:	
  4189                           ;PR23.c: 663: {
  4190                           ;PR23.c: 664: stop();
  4191  0F4E  120A  158A  226C   	fcall	_stop
              120A  158A         
  4192                           	line	665
  4193                           	
  4194  0F53                     l4467:	
  4195                           ;PR23.c: 665: RE2 = 0;
  4196  0F53  1283               	bcf	status, 5	;RP0=0, select bank0
  4197  0F54  1303               	bcf	status, 6	;RP1=0, select bank0
  4198  0F55  1109               	bcf	(74/8),(74)&7
  4199                           	line	666
  4200                           ;PR23.c: 666: }
  4201  0F56  2EE8               	goto	l4435
  4202                           	line	667
  4203                           	
  4204  0F57                     l794:	
  4205                           	line	669
  4206                           	
  4207  0F57                     l4469:	
  4208                           ;PR23.c: 667: else
  4209                           ;PR23.c: 668: {
  4210                           ;PR23.c: 669: forward();
  4211  0F57  120A  158A  2273   	fcall	_forward
              120A  158A         
  4212                           	line	670
  4213                           	
  4214  0F5C                     l4471:	
  4215                           ;PR23.c: 670: CCPR1L = 230;
  4216  0F5C  30E6               	movlw	(0E6h)
  4217  0F5D  1283               	bcf	status, 5	;RP0=0, select bank0
  4218  0F5E  1303               	bcf	status, 6	;RP1=0, select bank0
  4219  0F5F  0095               	movwf	(21)	;volatile
  4220                           	line	671
  4221                           	
  4222  0F60                     l4473:	
  4223                           ;PR23.c: 671: CCPR2L = 230;
  4224  0F60  30E6               	movlw	(0E6h)
  4225  0F61  009B               	movwf	(27)	;volatile
  4226                           	line	672
  4227                           	
  4228  0F62                     l4475:	
  4229                           ;PR23.c: 672: RE2 = 1;
  4230  0F62  1509               	bsf	(74/8),(74)&7
  4231  0F63  2EE8               	goto	l4435
  4232                           	line	673
  4233                           	
  4234  0F64                     l795:	
  4235  0F64  2EE8               	goto	l4435
  4236                           	
  4237  0F65                     l793:	
  4238  0F65  2EE8               	goto	l4435
  4239                           	
  4240  0F66                     l791:	
  4241  0F66  2EE8               	goto	l4435
  4242                           	line	674
  4243                           	
  4244  0F67                     l796:	
  4245                           	line	641
  4246  0F67  2EE8               	goto	l4435
  4247                           	
  4248  0F68                     l797:	
  4249                           	line	675
  4250                           	
  4251  0F68                     l798:	
  4252  0F68  0008               	return
  4253                           	opt stack 0
  4254                           GLOBAL	__end_of_analog_sen
  4255  0F69                     	__end_of_analog_sen:
  4256 ;; =============== function _analog_sen ends ============
  4257                           
  4258                           	signat	_analog_sen,88
  4259                           	global	_line_follow
  4260                           psect	text1060,local,class=CODE,delta=2
  4261                           global __ptext1060
  4262  0015                     __ptext1060:
  4263                           
  4264 ;; *************** function _line_follow *****************
  4265 ;; Defined at:
  4266 ;;		line 448 in file "PR23.c"
  4267 ;; Parameters:    Size  Location     Type
  4268 ;;		None
  4269 ;; Auto vars:     Size  Location     Type
  4270 ;;  memory          1   12[BANK0 ] unsigned char 
  4271 ;; Return value:  Size  Location     Type
  4272 ;;		None               void
  4273 ;; Registers used:
  4274 ;;		wreg, fsr0l, fsr0h, status,2, status,0, btemp+1, pclath, cstack
  4275 ;; Tracked objects:
  4276 ;;		On entry : 0/0
  4277 ;;		On exit  : 0/0
  4278 ;;		Unchanged: 0/0
  4279 ;; Data sizes:     COMMON   BANK0   BANK1   BANK3   BANK2
  4280 ;;      Params:         0       0       0       0       0
  4281 ;;      Locals:         0       1       0       0       0
  4282 ;;      Temps:          0       1       0       0       0
  4283 ;;      Totals:         0       2       0       0       0
  4284 ;;Total ram usage:        2 bytes
  4285 ;; Hardware stack levels used:    1
  4286 ;; Hardware stack levels required when called:    5
  4287 ;; This function calls:
  4288 ;;		_lcd_clr
  4289 ;;		_send_string
  4290 ;;		_forward
  4291 ;;		_lcd_goto
  4292 ;; This function is called by:
  4293 ;;		_main
  4294 ;; This function uses a non-reentrant model
  4295 ;;
  4296                           psect	text1060
  4297                           	file	"PR23.c"
  4298                           	line	448
  4299                           	global	__size_of_line_follow
  4300  0250                     	__size_of_line_follow	equ	__end_of_line_follow-_line_follow
  4301                           	
  4302  0015                     _line_follow:	
  4303                           	opt	stack 2
  4304                           ; Regs used in _line_follow: [wreg-fsr0h+status,2+status,0+btemp+1+pclath+cstack]
  4305                           	line	449
  4306                           	
  4307  0015                     l4221:	
  4308                           ;PR23.c: 449: unsigned char memory = 0;
  4309  0015  1003               	clrc
  4310  0016  3000               	movlw	0
  4311  0017  1803               	btfsc	status,0
  4312  0018  3001               	movlw	1
  4313  0019  1283               	bcf	status, 5	;RP0=0, select bank0
  4314  001A  1303               	bcf	status, 6	;RP1=0, select bank0
  4315  001B  00AC               	movwf	(line_follow@memory)
  4316                           	line	451
  4317                           	
  4318  001C                     l4223:	
  4319                           ;PR23.c: 451: lcd_clr();
  4320  001C  120A  158A  22D5   	fcall	_lcd_clr
              120A  118A         
  4321                           	line	452
  4322                           	
  4323  0021                     l4225:	
  4324                           ;PR23.c: 452: send_string("Position");
  4325  0021  302A               	movlw	low(STR_3|8000h)
  4326  0022  1283               	bcf	status, 5	;RP0=0, select bank0
  4327  0023  1303               	bcf	status, 6	;RP1=0, select bank0
  4328  0024  00A9               	movwf	(?_send_string)
  4329  0025  3091               	movlw	high(STR_3|8000h)
  4330  0026  00AA               	movwf	((?_send_string))+1
  4331  0027  120A  158A  2411   	fcall	_send_string
              120A  118A         
  4332  002C  282D               	goto	l4227
  4333                           	line	455
  4334                           ;PR23.c: 455: while(1)
  4335                           	
  4336  002D                     l727:	
  4337                           	line	457
  4338                           	
  4339  002D                     l4227:	
  4340                           ;PR23.c: 456: {
  4341                           ;PR23.c: 457: if ((RB0==1)&&(RB1==0)&&(RB2==0)&&(RB3==0))
  4342  002D  1283               	bcf	status, 5	;RP0=0, select bank0
  4343  002E  1303               	bcf	status, 6	;RP1=0, select bank0
  4344  002F  1C06               	btfss	(48/8),(48)&7
  4345  0030  2832               	goto	u4941
  4346  0031  2833               	goto	u4940
  4347  0032                     u4941:
  4348  0032  2860               	goto	l728
  4349  0033                     u4940:
  4350                           	
  4351  0033                     l4229:	
  4352  0033  1886               	btfsc	(49/8),(49)&7
  4353  0034  2836               	goto	u4951
  4354  0035  2837               	goto	u4950
  4355  0036                     u4951:
  4356  0036  2860               	goto	l728
  4357  0037                     u4950:
  4358                           	
  4359  0037                     l4231:	
  4360  0037  1906               	btfsc	(50/8),(50)&7
  4361  0038  283A               	goto	u4961
  4362  0039  283B               	goto	u4960
  4363  003A                     u4961:
  4364  003A  2860               	goto	l728
  4365  003B                     u4960:
  4366                           	
  4367  003B                     l4233:	
  4368  003B  1986               	btfsc	(51/8),(51)&7
  4369  003C  283E               	goto	u4971
  4370  003D  283F               	goto	u4970
  4371  003E                     u4971:
  4372  003E  2860               	goto	l728
  4373  003F                     u4970:
  4374                           	line	458
  4375                           	
  4376  003F                     l4235:	
  4377                           ;PR23.c: 458: { forward();
  4378  003F  120A  158A  2273   	fcall	_forward
              120A  118A         
  4379                           	line	459
  4380                           	
  4381  0044                     l4237:	
  4382                           ;PR23.c: 459: CCPR1L = 0;
  4383  0044  1283               	bcf	status, 5	;RP0=0, select bank0
  4384  0045  1303               	bcf	status, 6	;RP1=0, select bank0
  4385  0046  0195               	clrf	(21)	;volatile
  4386                           	line	460
  4387                           	
  4388  0047                     l4239:	
  4389                           ;PR23.c: 460: CCPR2L = 255;
  4390  0047  30FF               	movlw	(0FFh)
  4391  0048  009B               	movwf	(27)	;volatile
  4392                           	line	461
  4393                           	
  4394  0049                     l4241:	
  4395                           ;PR23.c: 461: memory = PORTB&0b00001111;
  4396  0049  0806               	movf	(6),w
  4397  004A  390F               	andlw	0Fh
  4398  004B  00AB               	movwf	(??_line_follow+0)+0
  4399  004C  082B               	movf	(??_line_follow+0)+0,w
  4400  004D  00AC               	movwf	(line_follow@memory)
  4401                           	line	462
  4402                           	
  4403  004E                     l4243:	
  4404                           ;PR23.c: 462: lcd_goto(20);
  4405  004E  3014               	movlw	(014h)
  4406  004F  120A  158A  233E   	fcall	_lcd_goto
              120A  118A         
  4407                           	line	463
  4408                           	
  4409  0054                     l4245:	
  4410                           ;PR23.c: 463: send_string ("right  ");
  4411  0054  303B               	movlw	low(STR_4|8000h)
  4412  0055  1283               	bcf	status, 5	;RP0=0, select bank0
  4413  0056  1303               	bcf	status, 6	;RP1=0, select bank0
  4414  0057  00A9               	movwf	(?_send_string)
  4415  0058  3091               	movlw	high(STR_4|8000h)
  4416  0059  00AA               	movwf	((?_send_string))+1
  4417  005A  120A  158A  2411   	fcall	_send_string
              120A  118A         
  4418                           	line	464
  4419                           ;PR23.c: 464: }
  4420  005F  282D               	goto	l4227
  4421                           	line	465
  4422                           	
  4423  0060                     l728:	
  4424                           ;PR23.c: 465: else if ((RB0==1)&&(RB1==1)&&(RB2==0)&&(RB3==0))
  4425  0060  1C06               	btfss	(48/8),(48)&7
  4426  0061  2863               	goto	u4981
  4427  0062  2864               	goto	u4980
  4428  0063                     u4981:
  4429  0063  2892               	goto	l730
  4430  0064                     u4980:
  4431                           	
  4432  0064                     l4247:	
  4433  0064  1C86               	btfss	(49/8),(49)&7
  4434  0065  2867               	goto	u4991
  4435  0066  2868               	goto	u4990
  4436  0067                     u4991:
  4437  0067  2892               	goto	l730
  4438  0068                     u4990:
  4439                           	
  4440  0068                     l4249:	
  4441  0068  1906               	btfsc	(50/8),(50)&7
  4442  0069  286B               	goto	u5001
  4443  006A  286C               	goto	u5000
  4444  006B                     u5001:
  4445  006B  2892               	goto	l730
  4446  006C                     u5000:
  4447                           	
  4448  006C                     l4251:	
  4449  006C  1986               	btfsc	(51/8),(51)&7
  4450  006D  286F               	goto	u5011
  4451  006E  2870               	goto	u5010
  4452  006F                     u5011:
  4453  006F  2892               	goto	l730
  4454  0070                     u5010:
  4455                           	line	466
  4456                           	
  4457  0070                     l4253:	
  4458                           ;PR23.c: 466: { forward();
  4459  0070  120A  158A  2273   	fcall	_forward
              120A  118A         
  4460                           	line	467
  4461                           	
  4462  0075                     l4255:	
  4463                           ;PR23.c: 467: CCPR1L = 180;
  4464  0075  30B4               	movlw	(0B4h)
  4465  0076  1283               	bcf	status, 5	;RP0=0, select bank0
  4466  0077  1303               	bcf	status, 6	;RP1=0, select bank0
  4467  0078  0095               	movwf	(21)	;volatile
  4468                           	line	468
  4469                           	
  4470  0079                     l4257:	
  4471                           ;PR23.c: 468: CCPR2L = 255;
  4472  0079  30FF               	movlw	(0FFh)
  4473  007A  009B               	movwf	(27)	;volatile
  4474                           	line	469
  4475                           	
  4476  007B                     l4259:	
  4477                           ;PR23.c: 469: memory = PORTB&0b00001111;
  4478  007B  0806               	movf	(6),w
  4479  007C  390F               	andlw	0Fh
  4480  007D  00AB               	movwf	(??_line_follow+0)+0
  4481  007E  082B               	movf	(??_line_follow+0)+0,w
  4482  007F  00AC               	movwf	(line_follow@memory)
  4483                           	line	470
  4484                           	
  4485  0080                     l4261:	
  4486                           ;PR23.c: 470: lcd_goto(20);
  4487  0080  3014               	movlw	(014h)
  4488  0081  120A  158A  233E   	fcall	_lcd_goto
              120A  118A         
  4489                           	line	471
  4490                           	
  4491  0086                     l4263:	
  4492                           ;PR23.c: 471: send_string ("m_right2");
  4493  0086  3018               	movlw	low(STR_5|8000h)
  4494  0087  1283               	bcf	status, 5	;RP0=0, select bank0
  4495  0088  1303               	bcf	status, 6	;RP1=0, select bank0
  4496  0089  00A9               	movwf	(?_send_string)
  4497  008A  3091               	movlw	high(STR_5|8000h)
  4498  008B  00AA               	movwf	((?_send_string))+1
  4499  008C  120A  158A  2411   	fcall	_send_string
              120A  118A         
  4500                           	line	472
  4501                           ;PR23.c: 472: }
  4502  0091  282D               	goto	l4227
  4503                           	line	473
  4504                           	
  4505  0092                     l730:	
  4506                           ;PR23.c: 473: else if ((RB0==0)&&(RB1==1)&&(RB2==0)&&(RB3==0))
  4507  0092  1806               	btfsc	(48/8),(48)&7
  4508  0093  2895               	goto	u5021
  4509  0094  2896               	goto	u5020
  4510  0095                     u5021:
  4511  0095  28C4               	goto	l732
  4512  0096                     u5020:
  4513                           	
  4514  0096                     l4265:	
  4515  0096  1C86               	btfss	(49/8),(49)&7
  4516  0097  2899               	goto	u5031
  4517  0098  289A               	goto	u5030
  4518  0099                     u5031:
  4519  0099  28C4               	goto	l732
  4520  009A                     u5030:
  4521                           	
  4522  009A                     l4267:	
  4523  009A  1906               	btfsc	(50/8),(50)&7
  4524  009B  289D               	goto	u5041
  4525  009C  289E               	goto	u5040
  4526  009D                     u5041:
  4527  009D  28C4               	goto	l732
  4528  009E                     u5040:
  4529                           	
  4530  009E                     l4269:	
  4531  009E  1986               	btfsc	(51/8),(51)&7
  4532  009F  28A1               	goto	u5051
  4533  00A0  28A2               	goto	u5050
  4534  00A1                     u5051:
  4535  00A1  28C4               	goto	l732
  4536  00A2                     u5050:
  4537                           	line	474
  4538                           	
  4539  00A2                     l4271:	
  4540                           ;PR23.c: 474: { forward();
  4541  00A2  120A  158A  2273   	fcall	_forward
              120A  118A         
  4542                           	line	475
  4543                           	
  4544  00A7                     l4273:	
  4545                           ;PR23.c: 475: CCPR1L = 200;
  4546  00A7  30C8               	movlw	(0C8h)
  4547  00A8  1283               	bcf	status, 5	;RP0=0, select bank0
  4548  00A9  1303               	bcf	status, 6	;RP1=0, select bank0
  4549  00AA  0095               	movwf	(21)	;volatile
  4550                           	line	476
  4551                           	
  4552  00AB                     l4275:	
  4553                           ;PR23.c: 476: CCPR2L = 255;
  4554  00AB  30FF               	movlw	(0FFh)
  4555  00AC  009B               	movwf	(27)	;volatile
  4556                           	line	477
  4557                           	
  4558  00AD                     l4277:	
  4559                           ;PR23.c: 477: memory = PORTB&0b00001111;
  4560  00AD  0806               	movf	(6),w
  4561  00AE  390F               	andlw	0Fh
  4562  00AF  00AB               	movwf	(??_line_follow+0)+0
  4563  00B0  082B               	movf	(??_line_follow+0)+0,w
  4564  00B1  00AC               	movwf	(line_follow@memory)
  4565                           	line	478
  4566                           	
  4567  00B2                     l4279:	
  4568                           ;PR23.c: 478: lcd_goto(20);
  4569  00B2  3014               	movlw	(014h)
  4570  00B3  120A  158A  233E   	fcall	_lcd_goto
              120A  118A         
  4571                           	line	479
  4572                           	
  4573  00B8                     l4281:	
  4574                           ;PR23.c: 479: send_string ("m_right1  ");
  4575  00B8  3004               	movlw	low(STR_6|8000h)
  4576  00B9  1283               	bcf	status, 5	;RP0=0, select bank0
  4577  00BA  1303               	bcf	status, 6	;RP1=0, select bank0
  4578  00BB  00A9               	movwf	(?_send_string)
  4579  00BC  3091               	movlw	high(STR_6|8000h)
  4580  00BD  00AA               	movwf	((?_send_string))+1
  4581  00BE  120A  158A  2411   	fcall	_send_string
              120A  118A         
  4582                           	line	480
  4583                           ;PR23.c: 480: }
  4584  00C3  282D               	goto	l4227
  4585                           	line	481
  4586                           	
  4587  00C4                     l732:	
  4588                           ;PR23.c: 481: else if ((RB0==1)&&(RB1==1)&&(RB2==1)&&(RB3==0))
  4589  00C4  1C06               	btfss	(48/8),(48)&7
  4590  00C5  28C7               	goto	u5061
  4591  00C6  28C8               	goto	u5060
  4592  00C7                     u5061:
  4593  00C7  28F6               	goto	l734
  4594  00C8                     u5060:
  4595                           	
  4596  00C8                     l4283:	
  4597  00C8  1C86               	btfss	(49/8),(49)&7
  4598  00C9  28CB               	goto	u5071
  4599  00CA  28CC               	goto	u5070
  4600  00CB                     u5071:
  4601  00CB  28F6               	goto	l734
  4602  00CC                     u5070:
  4603                           	
  4604  00CC                     l4285:	
  4605  00CC  1D06               	btfss	(50/8),(50)&7
  4606  00CD  28CF               	goto	u5081
  4607  00CE  28D0               	goto	u5080
  4608  00CF                     u5081:
  4609  00CF  28F6               	goto	l734
  4610  00D0                     u5080:
  4611                           	
  4612  00D0                     l4287:	
  4613  00D0  1986               	btfsc	(51/8),(51)&7
  4614  00D1  28D3               	goto	u5091
  4615  00D2  28D4               	goto	u5090
  4616  00D3                     u5091:
  4617  00D3  28F6               	goto	l734
  4618  00D4                     u5090:
  4619                           	line	483
  4620                           	
  4621  00D4                     l4289:	
  4622                           ;PR23.c: 482: {
  4623                           ;PR23.c: 483: forward();
  4624  00D4  120A  158A  2273   	fcall	_forward
              120A  118A         
  4625                           	line	484
  4626                           	
  4627  00D9                     l4291:	
  4628                           ;PR23.c: 484: CCPR1L = 200;
  4629  00D9  30C8               	movlw	(0C8h)
  4630  00DA  1283               	bcf	status, 5	;RP0=0, select bank0
  4631  00DB  1303               	bcf	status, 6	;RP1=0, select bank0
  4632  00DC  0095               	movwf	(21)	;volatile
  4633                           	line	485
  4634                           	
  4635  00DD                     l4293:	
  4636                           ;PR23.c: 485: CCPR2L = 255;
  4637  00DD  30FF               	movlw	(0FFh)
  4638  00DE  009B               	movwf	(27)	;volatile
  4639                           	line	486
  4640                           	
  4641  00DF                     l4295:	
  4642                           ;PR23.c: 486: memory = PORTB&0b00001111;
  4643  00DF  0806               	movf	(6),w
  4644  00E0  390F               	andlw	0Fh
  4645  00E1  00AB               	movwf	(??_line_follow+0)+0
  4646  00E2  082B               	movf	(??_line_follow+0)+0,w
  4647  00E3  00AC               	movwf	(line_follow@memory)
  4648                           	line	487
  4649                           	
  4650  00E4                     l4297:	
  4651                           ;PR23.c: 487: lcd_goto(20);
  4652  00E4  3014               	movlw	(014h)
  4653  00E5  120A  158A  233E   	fcall	_lcd_goto
              120A  118A         
  4654                           	line	488
  4655                           	
  4656  00EA                     l4299:	
  4657                           ;PR23.c: 488: send_string ("m_right1  ");
  4658  00EA  3004               	movlw	low(STR_7|8000h)
  4659  00EB  1283               	bcf	status, 5	;RP0=0, select bank0
  4660  00EC  1303               	bcf	status, 6	;RP1=0, select bank0
  4661  00ED  00A9               	movwf	(?_send_string)
  4662  00EE  3091               	movlw	high(STR_7|8000h)
  4663  00EF  00AA               	movwf	((?_send_string))+1
  4664  00F0  120A  158A  2411   	fcall	_send_string
              120A  118A         
  4665                           	line	489
  4666                           ;PR23.c: 489: }
  4667  00F5  282D               	goto	l4227
  4668                           	line	490
  4669                           	
  4670  00F6                     l734:	
  4671                           ;PR23.c: 490: else if ((RB0==0)&&(RB1==1)&&(RB2==1)&&(RB3==0))
  4672  00F6  1806               	btfsc	(48/8),(48)&7
  4673  00F7  28F9               	goto	u5101
  4674  00F8  28FA               	goto	u5100
  4675  00F9                     u5101:
  4676  00F9  2928               	goto	l736
  4677  00FA                     u5100:
  4678                           	
  4679  00FA                     l4301:	
  4680  00FA  1C86               	btfss	(49/8),(49)&7
  4681  00FB  28FD               	goto	u5111
  4682  00FC  28FE               	goto	u5110
  4683  00FD                     u5111:
  4684  00FD  2928               	goto	l736
  4685  00FE                     u5110:
  4686                           	
  4687  00FE                     l4303:	
  4688  00FE  1D06               	btfss	(50/8),(50)&7
  4689  00FF  2901               	goto	u5121
  4690  0100  2902               	goto	u5120
  4691  0101                     u5121:
  4692  0101  2928               	goto	l736
  4693  0102                     u5120:
  4694                           	
  4695  0102                     l4305:	
  4696  0102  1986               	btfsc	(51/8),(51)&7
  4697  0103  2905               	goto	u5131
  4698  0104  2906               	goto	u5130
  4699  0105                     u5131:
  4700  0105  2928               	goto	l736
  4701  0106                     u5130:
  4702                           	line	492
  4703                           	
  4704  0106                     l4307:	
  4705                           ;PR23.c: 491: {
  4706                           ;PR23.c: 492: forward();
  4707  0106  120A  158A  2273   	fcall	_forward
              120A  118A         
  4708                           	line	493
  4709                           	
  4710  010B                     l4309:	
  4711                           ;PR23.c: 493: CCPR1L = 255;
  4712  010B  30FF               	movlw	(0FFh)
  4713  010C  1283               	bcf	status, 5	;RP0=0, select bank0
  4714  010D  1303               	bcf	status, 6	;RP1=0, select bank0
  4715  010E  0095               	movwf	(21)	;volatile
  4716                           	line	494
  4717                           	
  4718  010F                     l4311:	
  4719                           ;PR23.c: 494: CCPR2L = 255;
  4720  010F  30FF               	movlw	(0FFh)
  4721  0110  009B               	movwf	(27)	;volatile
  4722                           	line	495
  4723                           	
  4724  0111                     l4313:	
  4725                           ;PR23.c: 495: memory = PORTB&0b00001111;
  4726  0111  0806               	movf	(6),w
  4727  0112  390F               	andlw	0Fh
  4728  0113  00AB               	movwf	(??_line_follow+0)+0
  4729  0114  082B               	movf	(??_line_follow+0)+0,w
  4730  0115  00AC               	movwf	(line_follow@memory)
  4731                           	line	496
  4732                           	
  4733  0116                     l4315:	
  4734                           ;PR23.c: 496: lcd_goto(20);
  4735  0116  3014               	movlw	(014h)
  4736  0117  120A  158A  233E   	fcall	_lcd_goto
              120A  118A         
  4737                           	line	497
  4738                           	
  4739  011C                     l4317:	
  4740                           ;PR23.c: 497: send_string ("middle ");
  4741  011C  3043               	movlw	low(STR_8|8000h)
  4742  011D  1283               	bcf	status, 5	;RP0=0, select bank0
  4743  011E  1303               	bcf	status, 6	;RP1=0, select bank0
  4744  011F  00A9               	movwf	(?_send_string)
  4745  0120  3091               	movlw	high(STR_8|8000h)
  4746  0121  00AA               	movwf	((?_send_string))+1
  4747  0122  120A  158A  2411   	fcall	_send_string
              120A  118A         
  4748                           	line	498
  4749                           ;PR23.c: 498: }
  4750  0127  282D               	goto	l4227
  4751                           	line	499
  4752                           	
  4753  0128                     l736:	
  4754                           ;PR23.c: 499: else if ((RB0==0)&&(RB1==0)&&(RB2==1)&&(RB3==0))
  4755  0128  1806               	btfsc	(48/8),(48)&7
  4756  0129  292B               	goto	u5141
  4757  012A  292C               	goto	u5140
  4758  012B                     u5141:
  4759  012B  295A               	goto	l738
  4760  012C                     u5140:
  4761                           	
  4762  012C                     l4319:	
  4763  012C  1886               	btfsc	(49/8),(49)&7
  4764  012D  292F               	goto	u5151
  4765  012E  2930               	goto	u5150
  4766  012F                     u5151:
  4767  012F  295A               	goto	l738
  4768  0130                     u5150:
  4769                           	
  4770  0130                     l4321:	
  4771  0130  1D06               	btfss	(50/8),(50)&7
  4772  0131  2933               	goto	u5161
  4773  0132  2934               	goto	u5160
  4774  0133                     u5161:
  4775  0133  295A               	goto	l738
  4776  0134                     u5160:
  4777                           	
  4778  0134                     l4323:	
  4779  0134  1986               	btfsc	(51/8),(51)&7
  4780  0135  2937               	goto	u5171
  4781  0136  2938               	goto	u5170
  4782  0137                     u5171:
  4783  0137  295A               	goto	l738
  4784  0138                     u5170:
  4785                           	line	501
  4786                           	
  4787  0138                     l4325:	
  4788                           ;PR23.c: 500: {
  4789                           ;PR23.c: 501: forward();
  4790  0138  120A  158A  2273   	fcall	_forward
              120A  118A         
  4791                           	line	502
  4792                           	
  4793  013D                     l4327:	
  4794                           ;PR23.c: 502: CCPR1L = 255;
  4795  013D  30FF               	movlw	(0FFh)
  4796  013E  1283               	bcf	status, 5	;RP0=0, select bank0
  4797  013F  1303               	bcf	status, 6	;RP1=0, select bank0
  4798  0140  0095               	movwf	(21)	;volatile
  4799                           	line	503
  4800                           	
  4801  0141                     l4329:	
  4802                           ;PR23.c: 503: CCPR2L = 200;
  4803  0141  30C8               	movlw	(0C8h)
  4804  0142  009B               	movwf	(27)	;volatile
  4805                           	line	504
  4806                           	
  4807  0143                     l4331:	
  4808                           ;PR23.c: 504: memory = PORTB&0b00001111;
  4809  0143  0806               	movf	(6),w
  4810  0144  390F               	andlw	0Fh
  4811  0145  00AB               	movwf	(??_line_follow+0)+0
  4812  0146  082B               	movf	(??_line_follow+0)+0,w
  4813  0147  00AC               	movwf	(line_follow@memory)
  4814                           	line	505
  4815                           	
  4816  0148                     l4333:	
  4817                           ;PR23.c: 505: lcd_goto(20);
  4818  0148  3014               	movlw	(014h)
  4819  0149  120A  158A  233E   	fcall	_lcd_goto
              120A  118A         
  4820                           	line	506
  4821                           	
  4822  014E                     l4335:	
  4823                           ;PR23.c: 506: send_string ("m_left1   ");
  4824  014E  30F9               	movlw	low(STR_9|8000h)
  4825  014F  1283               	bcf	status, 5	;RP0=0, select bank0
  4826  0150  1303               	bcf	status, 6	;RP1=0, select bank0
  4827  0151  00A9               	movwf	(?_send_string)
  4828  0152  3090               	movlw	high(STR_9|8000h)
  4829  0153  00AA               	movwf	((?_send_string))+1
  4830  0154  120A  158A  2411   	fcall	_send_string
              120A  118A         
  4831                           	line	507
  4832                           ;PR23.c: 507: }
  4833  0159  282D               	goto	l4227
  4834                           	line	508
  4835                           	
  4836  015A                     l738:	
  4837                           ;PR23.c: 508: else if ((RB0==0)&&(RB1==1)&&(RB2==1)&&(RB3==1))
  4838  015A  1806               	btfsc	(48/8),(48)&7
  4839  015B  295D               	goto	u5181
  4840  015C  295E               	goto	u5180
  4841  015D                     u5181:
  4842  015D  298C               	goto	l740
  4843  015E                     u5180:
  4844                           	
  4845  015E                     l4337:	
  4846  015E  1C86               	btfss	(49/8),(49)&7
  4847  015F  2961               	goto	u5191
  4848  0160  2962               	goto	u5190
  4849  0161                     u5191:
  4850  0161  298C               	goto	l740
  4851  0162                     u5190:
  4852                           	
  4853  0162                     l4339:	
  4854  0162  1D06               	btfss	(50/8),(50)&7
  4855  0163  2965               	goto	u5201
  4856  0164  2966               	goto	u5200
  4857  0165                     u5201:
  4858  0165  298C               	goto	l740
  4859  0166                     u5200:
  4860                           	
  4861  0166                     l4341:	
  4862  0166  1D86               	btfss	(51/8),(51)&7
  4863  0167  2969               	goto	u5211
  4864  0168  296A               	goto	u5210
  4865  0169                     u5211:
  4866  0169  298C               	goto	l740
  4867  016A                     u5210:
  4868                           	line	510
  4869                           	
  4870  016A                     l4343:	
  4871                           ;PR23.c: 509: {
  4872                           ;PR23.c: 510: forward();
  4873  016A  120A  158A  2273   	fcall	_forward
              120A  118A         
  4874                           	line	511
  4875                           	
  4876  016F                     l4345:	
  4877                           ;PR23.c: 511: CCPR1L = 255;
  4878  016F  30FF               	movlw	(0FFh)
  4879  0170  1283               	bcf	status, 5	;RP0=0, select bank0
  4880  0171  1303               	bcf	status, 6	;RP1=0, select bank0
  4881  0172  0095               	movwf	(21)	;volatile
  4882                           	line	512
  4883                           	
  4884  0173                     l4347:	
  4885                           ;PR23.c: 512: CCPR2L = 200;
  4886  0173  30C8               	movlw	(0C8h)
  4887  0174  009B               	movwf	(27)	;volatile
  4888                           	line	513
  4889                           	
  4890  0175                     l4349:	
  4891                           ;PR23.c: 513: memory = PORTB&0b00001111;
  4892  0175  0806               	movf	(6),w
  4893  0176  390F               	andlw	0Fh
  4894  0177  00AB               	movwf	(??_line_follow+0)+0
  4895  0178  082B               	movf	(??_line_follow+0)+0,w
  4896  0179  00AC               	movwf	(line_follow@memory)
  4897                           	line	514
  4898                           	
  4899  017A                     l4351:	
  4900                           ;PR23.c: 514: lcd_goto(20);
  4901  017A  3014               	movlw	(014h)
  4902  017B  120A  158A  233E   	fcall	_lcd_goto
              120A  118A         
  4903                           	line	515
  4904                           	
  4905  0180                     l4353:	
  4906                           ;PR23.c: 515: send_string ("m_left1   ");
  4907  0180  30F9               	movlw	low(STR_10|8000h)
  4908  0181  1283               	bcf	status, 5	;RP0=0, select bank0
  4909  0182  1303               	bcf	status, 6	;RP1=0, select bank0
  4910  0183  00A9               	movwf	(?_send_string)
  4911  0184  3090               	movlw	high(STR_10|8000h)
  4912  0185  00AA               	movwf	((?_send_string))+1
  4913  0186  120A  158A  2411   	fcall	_send_string
              120A  118A         
  4914                           	line	516
  4915                           ;PR23.c: 516: }
  4916  018B  282D               	goto	l4227
  4917                           	line	517
  4918                           	
  4919  018C                     l740:	
  4920                           ;PR23.c: 517: else if ((RB0==0)&&(RB1==0)&&(RB2==1)&&(RB3==1))
  4921  018C  1806               	btfsc	(48/8),(48)&7
  4922  018D  298F               	goto	u5221
  4923  018E  2990               	goto	u5220
  4924  018F                     u5221:
  4925  018F  29BE               	goto	l742
  4926  0190                     u5220:
  4927                           	
  4928  0190                     l4355:	
  4929  0190  1886               	btfsc	(49/8),(49)&7
  4930  0191  2993               	goto	u5231
  4931  0192  2994               	goto	u5230
  4932  0193                     u5231:
  4933  0193  29BE               	goto	l742
  4934  0194                     u5230:
  4935                           	
  4936  0194                     l4357:	
  4937  0194  1D06               	btfss	(50/8),(50)&7
  4938  0195  2997               	goto	u5241
  4939  0196  2998               	goto	u5240
  4940  0197                     u5241:
  4941  0197  29BE               	goto	l742
  4942  0198                     u5240:
  4943                           	
  4944  0198                     l4359:	
  4945  0198  1D86               	btfss	(51/8),(51)&7
  4946  0199  299B               	goto	u5251
  4947  019A  299C               	goto	u5250
  4948  019B                     u5251:
  4949  019B  29BE               	goto	l742
  4950  019C                     u5250:
  4951                           	line	519
  4952                           	
  4953  019C                     l4361:	
  4954                           ;PR23.c: 518: {
  4955                           ;PR23.c: 519: forward();
  4956  019C  120A  158A  2273   	fcall	_forward
              120A  118A         
  4957                           	line	520
  4958                           	
  4959  01A1                     l4363:	
  4960                           ;PR23.c: 520: CCPR1L = 255;
  4961  01A1  30FF               	movlw	(0FFh)
  4962  01A2  1283               	bcf	status, 5	;RP0=0, select bank0
  4963  01A3  1303               	bcf	status, 6	;RP1=0, select bank0
  4964  01A4  0095               	movwf	(21)	;volatile
  4965                           	line	521
  4966                           	
  4967  01A5                     l4365:	
  4968                           ;PR23.c: 521: CCPR2L = 180;
  4969  01A5  30B4               	movlw	(0B4h)
  4970  01A6  009B               	movwf	(27)	;volatile
  4971                           	line	522
  4972                           	
  4973  01A7                     l4367:	
  4974                           ;PR23.c: 522: memory = PORTB&0b00001111;
  4975  01A7  0806               	movf	(6),w
  4976  01A8  390F               	andlw	0Fh
  4977  01A9  00AB               	movwf	(??_line_follow+0)+0
  4978  01AA  082B               	movf	(??_line_follow+0)+0,w
  4979  01AB  00AC               	movwf	(line_follow@memory)
  4980                           	line	523
  4981                           	
  4982  01AC                     l4369:	
  4983                           ;PR23.c: 523: lcd_goto(20);
  4984  01AC  3014               	movlw	(014h)
  4985  01AD  120A  158A  233E   	fcall	_lcd_goto
              120A  118A         
  4986                           	line	524
  4987                           	
  4988  01B2                     l4371:	
  4989                           ;PR23.c: 524: send_string ("m_left2 ");
  4990  01B2  300F               	movlw	low(STR_11|8000h)
  4991  01B3  1283               	bcf	status, 5	;RP0=0, select bank0
  4992  01B4  1303               	bcf	status, 6	;RP1=0, select bank0
  4993  01B5  00A9               	movwf	(?_send_string)
  4994  01B6  3091               	movlw	high(STR_11|8000h)
  4995  01B7  00AA               	movwf	((?_send_string))+1
  4996  01B8  120A  158A  2411   	fcall	_send_string
              120A  118A         
  4997                           	line	525
  4998                           ;PR23.c: 525: }
  4999  01BD  282D               	goto	l4227
  5000                           	line	526
  5001                           	
  5002  01BE                     l742:	
  5003                           ;PR23.c: 526: else if ((RB0==0)&&(RB1==0)&&(RB2==0)&&(RB3==1))
  5004  01BE  1806               	btfsc	(48/8),(48)&7
  5005  01BF  29C1               	goto	u5261
  5006  01C0  29C2               	goto	u5260
  5007  01C1                     u5261:
  5008  01C1  29EF               	goto	l744
  5009  01C2                     u5260:
  5010                           	
  5011  01C2                     l4373:	
  5012  01C2  1886               	btfsc	(49/8),(49)&7
  5013  01C3  29C5               	goto	u5271
  5014  01C4  29C6               	goto	u5270
  5015  01C5                     u5271:
  5016  01C5  29EF               	goto	l744
  5017  01C6                     u5270:
  5018                           	
  5019  01C6                     l4375:	
  5020  01C6  1906               	btfsc	(50/8),(50)&7
  5021  01C7  29C9               	goto	u5281
  5022  01C8  29CA               	goto	u5280
  5023  01C9                     u5281:
  5024  01C9  29EF               	goto	l744
  5025  01CA                     u5280:
  5026                           	
  5027  01CA                     l4377:	
  5028  01CA  1D86               	btfss	(51/8),(51)&7
  5029  01CB  29CD               	goto	u5291
  5030  01CC  29CE               	goto	u5290
  5031  01CD                     u5291:
  5032  01CD  29EF               	goto	l744
  5033  01CE                     u5290:
  5034                           	line	528
  5035                           	
  5036  01CE                     l4379:	
  5037                           ;PR23.c: 527: {
  5038                           ;PR23.c: 528: forward();
  5039  01CE  120A  158A  2273   	fcall	_forward
              120A  118A         
  5040                           	line	529
  5041                           	
  5042  01D3                     l4381:	
  5043                           ;PR23.c: 529: CCPR1L = 255;
  5044  01D3  30FF               	movlw	(0FFh)
  5045  01D4  1283               	bcf	status, 5	;RP0=0, select bank0
  5046  01D5  1303               	bcf	status, 6	;RP1=0, select bank0
  5047  01D6  0095               	movwf	(21)	;volatile
  5048                           	line	530
  5049                           	
  5050  01D7                     l4383:	
  5051                           ;PR23.c: 530: CCPR2L = 0;
  5052  01D7  019B               	clrf	(27)	;volatile
  5053                           	line	531
  5054                           	
  5055  01D8                     l4385:	
  5056                           ;PR23.c: 531: memory = PORTB&0b00001111;
  5057  01D8  0806               	movf	(6),w
  5058  01D9  390F               	andlw	0Fh
  5059  01DA  00AB               	movwf	(??_line_follow+0)+0
  5060  01DB  082B               	movf	(??_line_follow+0)+0,w
  5061  01DC  00AC               	movwf	(line_follow@memory)
  5062                           	line	532
  5063                           	
  5064  01DD                     l4387:	
  5065                           ;PR23.c: 532: lcd_goto(20);
  5066  01DD  3014               	movlw	(014h)
  5067  01DE  120A  158A  233E   	fcall	_lcd_goto
              120A  118A         
  5068                           	line	533
  5069                           	
  5070  01E3                     l4389:	
  5071                           ;PR23.c: 533: send_string ("left   ");
  5072  01E3  3033               	movlw	low(STR_12|8000h)
  5073  01E4  1283               	bcf	status, 5	;RP0=0, select bank0
  5074  01E5  1303               	bcf	status, 6	;RP1=0, select bank0
  5075  01E6  00A9               	movwf	(?_send_string)
  5076  01E7  3091               	movlw	high(STR_12|8000h)
  5077  01E8  00AA               	movwf	((?_send_string))+1
  5078  01E9  120A  158A  2411   	fcall	_send_string
              120A  118A         
  5079                           	line	534
  5080                           ;PR23.c: 534: }
  5081  01EE  282D               	goto	l4227
  5082                           	line	535
  5083                           	
  5084  01EF                     l744:	
  5085                           ;PR23.c: 535: else if ((RB0==0)&&(RB1==0)&&(RB2==0)&&(RB3==0))
  5086  01EF  1806               	btfsc	(48/8),(48)&7
  5087  01F0  29F2               	goto	u5301
  5088  01F1  29F3               	goto	u5300
  5089  01F2                     u5301:
  5090  01F2  2A42               	goto	l746
  5091  01F3                     u5300:
  5092                           	
  5093  01F3                     l4391:	
  5094  01F3  1886               	btfsc	(49/8),(49)&7
  5095  01F4  29F6               	goto	u5311
  5096  01F5  29F7               	goto	u5310
  5097  01F6                     u5311:
  5098  01F6  2A42               	goto	l746
  5099  01F7                     u5310:
  5100                           	
  5101  01F7                     l4393:	
  5102  01F7  1906               	btfsc	(50/8),(50)&7
  5103  01F8  29FA               	goto	u5321
  5104  01F9  29FB               	goto	u5320
  5105  01FA                     u5321:
  5106  01FA  2A42               	goto	l746
  5107  01FB                     u5320:
  5108                           	
  5109  01FB                     l4395:	
  5110  01FB  1986               	btfsc	(51/8),(51)&7
  5111  01FC  29FE               	goto	u5331
  5112  01FD  29FF               	goto	u5330
  5113  01FE                     u5331:
  5114  01FE  2A42               	goto	l746
  5115  01FF                     u5330:
  5116                           	line	537
  5117                           	
  5118  01FF                     l4397:	
  5119                           ;PR23.c: 536: {
  5120                           ;PR23.c: 537: forward();
  5121  01FF  120A  158A  2273   	fcall	_forward
              120A  118A         
  5122                           	line	538
  5123                           	
  5124  0204                     l4399:	
  5125                           ;PR23.c: 538: if ((memory == 0b00000001)||(memory == 0b00000011)||(memory == 0b0000010)|
                                 |(memory == 0b0000111))
  5126  0204  1283               	bcf	status, 5	;RP0=0, select bank0
  5127  0205  1303               	bcf	status, 6	;RP1=0, select bank0
  5128  0206  082C               	movf	(line_follow@memory),w
  5129  0207  3A01               	xorlw	01h
  5130  0208  1903               	skipnz
  5131  0209  2A0B               	goto	u5341
  5132  020A  2A0C               	goto	u5340
  5133  020B                     u5341:
  5134  020B  2A1F               	goto	l4407
  5135  020C                     u5340:
  5136                           	
  5137  020C                     l4401:	
  5138  020C  082C               	movf	(line_follow@memory),w
  5139  020D  3A03               	xorlw	03h
  5140  020E  1903               	skipnz
  5141  020F  2A11               	goto	u5351
  5142  0210  2A12               	goto	u5350
  5143  0211                     u5351:
  5144  0211  2A1F               	goto	l4407
  5145  0212                     u5350:
  5146                           	
  5147  0212                     l4403:	
  5148  0212  082C               	movf	(line_follow@memory),w
  5149  0213  3A02               	xorlw	02h
  5150  0214  1903               	skipnz
  5151  0215  2A17               	goto	u5361
  5152  0216  2A18               	goto	u5360
  5153  0217                     u5361:
  5154  0217  2A1F               	goto	l4407
  5155  0218                     u5360:
  5156                           	
  5157  0218                     l4405:	
  5158  0218  082C               	movf	(line_follow@memory),w
  5159  0219  3A07               	xorlw	07h
  5160  021A  1D03               	skipz
  5161  021B  2A1D               	goto	u5371
  5162  021C  2A1E               	goto	u5370
  5163  021D                     u5371:
  5164  021D  2A23               	goto	l4411
  5165  021E                     u5370:
  5166  021E  2A1F               	goto	l4407
  5167                           	
  5168  021F                     l749:	
  5169                           	line	540
  5170                           	
  5171  021F                     l4407:	
  5172                           ;PR23.c: 539: {
  5173                           ;PR23.c: 540: CCPR1L = 0;
  5174  021F  0195               	clrf	(21)	;volatile
  5175                           	line	541
  5176                           	
  5177  0220                     l4409:	
  5178                           ;PR23.c: 541: CCPR2L = 255;
  5179  0220  30FF               	movlw	(0FFh)
  5180  0221  009B               	movwf	(27)	;volatile
  5181                           	line	542
  5182                           ;PR23.c: 542: }
  5183  0222  282D               	goto	l4227
  5184                           	line	543
  5185                           	
  5186  0223                     l747:	
  5187                           	
  5188  0223                     l4411:	
  5189                           ;PR23.c: 543: else if ((memory == 0b00001000)||(memory == 0b0000100)||(memory == 0b00001
                                 100)||(memory == 0b0001110))
  5190  0223  082C               	movf	(line_follow@memory),w
  5191  0224  3A08               	xorlw	08h
  5192  0225  1903               	skipnz
  5193  0226  2A28               	goto	u5381
  5194  0227  2A29               	goto	u5380
  5195  0228                     u5381:
  5196  0228  2A3C               	goto	l4419
  5197  0229                     u5380:
  5198                           	
  5199  0229                     l4413:	
  5200  0229  082C               	movf	(line_follow@memory),w
  5201  022A  3A04               	xorlw	04h
  5202  022B  1903               	skipnz
  5203  022C  2A2E               	goto	u5391
  5204  022D  2A2F               	goto	u5390
  5205  022E                     u5391:
  5206  022E  2A3C               	goto	l4419
  5207  022F                     u5390:
  5208                           	
  5209  022F                     l4415:	
  5210  022F  082C               	movf	(line_follow@memory),w
  5211  0230  3A0C               	xorlw	0Ch
  5212  0231  1903               	skipnz
  5213  0232  2A34               	goto	u5401
  5214  0233  2A35               	goto	u5400
  5215  0234                     u5401:
  5216  0234  2A3C               	goto	l4419
  5217  0235                     u5400:
  5218                           	
  5219  0235                     l4417:	
  5220  0235  082C               	movf	(line_follow@memory),w
  5221  0236  3A0E               	xorlw	0Eh
  5222  0237  1D03               	skipz
  5223  0238  2A3A               	goto	u5411
  5224  0239  2A3B               	goto	u5410
  5225  023A                     u5411:
  5226  023A  282D               	goto	l4227
  5227  023B                     u5410:
  5228  023B  2A3C               	goto	l4419
  5229                           	
  5230  023C                     l753:	
  5231                           	line	545
  5232                           	
  5233  023C                     l4419:	
  5234                           ;PR23.c: 544: {
  5235                           ;PR23.c: 545: CCPR1L = 255;
  5236  023C  30FF               	movlw	(0FFh)
  5237  023D  0095               	movwf	(21)	;volatile
  5238                           	line	546
  5239                           	
  5240  023E                     l4421:	
  5241                           ;PR23.c: 546: CCPR2L = 0;
  5242  023E  019B               	clrf	(27)	;volatile
  5243  023F  282D               	goto	l4227
  5244                           	line	547
  5245                           	
  5246  0240                     l751:	
  5247  0240  282D               	goto	l4227
  5248                           	line	548
  5249                           	
  5250  0241                     l750:	
  5251                           ;PR23.c: 547: }
  5252                           ;PR23.c: 548: }
  5253  0241  282D               	goto	l4227
  5254                           	line	549
  5255                           	
  5256  0242                     l746:	
  5257                           ;PR23.c: 549: else if ((RB0==1)&&(RB1==1)&&(RB2==1)&&(RB3==1))
  5258  0242  1C06               	btfss	(48/8),(48)&7
  5259  0243  2A45               	goto	u5421
  5260  0244  2A46               	goto	u5420
  5261  0245                     u5421:
  5262  0245  282D               	goto	l4227
  5263  0246                     u5420:
  5264                           	
  5265  0246                     l4423:	
  5266  0246  1C86               	btfss	(49/8),(49)&7
  5267  0247  2A49               	goto	u5431
  5268  0248  2A4A               	goto	u5430
  5269  0249                     u5431:
  5270  0249  282D               	goto	l4227
  5271  024A                     u5430:
  5272                           	
  5273  024A                     l4425:	
  5274  024A  1D06               	btfss	(50/8),(50)&7
  5275  024B  2A4D               	goto	u5441
  5276  024C  2A4E               	goto	u5440
  5277  024D                     u5441:
  5278  024D  282D               	goto	l4227
  5279  024E                     u5440:
  5280                           	
  5281  024E                     l4427:	
  5282  024E  1D86               	btfss	(51/8),(51)&7
  5283  024F  2A51               	goto	u5451
  5284  0250  2A52               	goto	u5450
  5285  0251                     u5451:
  5286  0251  282D               	goto	l4227
  5287  0252                     u5450:
  5288                           	line	551
  5289                           	
  5290  0252                     l4429:	
  5291                           ;PR23.c: 550: {
  5292                           ;PR23.c: 551: forward();
  5293  0252  120A  158A  2273   	fcall	_forward
              120A  118A         
  5294  0257  282D               	goto	l4227
  5295                           	line	552
  5296                           	
  5297  0258                     l755:	
  5298  0258  282D               	goto	l4227
  5299                           	line	553
  5300                           	
  5301  0259                     l754:	
  5302  0259  282D               	goto	l4227
  5303                           	
  5304  025A                     l745:	
  5305  025A  282D               	goto	l4227
  5306                           	
  5307  025B                     l743:	
  5308  025B  282D               	goto	l4227
  5309                           	
  5310  025C                     l741:	
  5311  025C  282D               	goto	l4227
  5312                           	
  5313  025D                     l739:	
  5314  025D  282D               	goto	l4227
  5315                           	
  5316  025E                     l737:	
  5317  025E  282D               	goto	l4227
  5318                           	
  5319  025F                     l735:	
  5320  025F  282D               	goto	l4227
  5321                           	
  5322  0260                     l733:	
  5323  0260  282D               	goto	l4227
  5324                           	
  5325  0261                     l731:	
  5326  0261  282D               	goto	l4227
  5327                           	
  5328  0262                     l729:	
  5329  0262  282D               	goto	l4227
  5330                           	
  5331  0263                     l756:	
  5332                           	line	455
  5333  0263  282D               	goto	l4227
  5334                           	
  5335  0264                     l757:	
  5336                           	line	554
  5337                           	
  5338  0264                     l758:	
  5339  0264  0008               	return
  5340                           	opt stack 0
  5341                           GLOBAL	__end_of_line_follow
  5342  0265                     	__end_of_line_follow:
  5343 ;; =============== function _line_follow ends ============
  5344                           
  5345                           	signat	_line_follow,88
  5346                           	global	_dis_num
  5347                           psect	text1061,local,class=CODE,delta=2
  5348                           global __ptext1061
  5349  03F3                     __ptext1061:
  5350                           
  5351 ;; *************** function _dis_num *****************
  5352 ;; Defined at:
  5353 ;;		line 311 in file "PR23.c"
  5354 ;; Parameters:    Size  Location     Type
  5355 ;;  data            4   14[BANK0 ] unsigned long 
  5356 ;; Auto vars:     Size  Location     Type
  5357 ;;  tenth           1   23[BANK0 ] unsigned char 
  5358 ;;  hundred         1   22[BANK0 ] unsigned char 
  5359 ;;  thousand        1   21[BANK0 ] unsigned char 
  5360 ;;  ten_thousand    1   20[BANK0 ] unsigned char 
  5361 ;;  hundred_thou    1   19[BANK0 ] unsigned char 
  5362 ;; Return value:  Size  Location     Type
  5363 ;;		None               void
  5364 ;; Registers used:
  5365 ;;		wreg, status,2, status,0, pclath, cstack
  5366 ;; Tracked objects:
  5367 ;;		On entry : 0/0
  5368 ;;		On exit  : 0/0
  5369 ;;		Unchanged: 0/0
  5370 ;; Data sizes:     COMMON   BANK0   BANK1   BANK3   BANK2
  5371 ;;      Params:         0       4       0       0       0
  5372 ;;      Locals:         0       5       0       0       0
  5373 ;;      Temps:          0       1       0       0       0
  5374 ;;      Totals:         0      10       0       0       0
  5375 ;;Total ram usage:       10 bytes
  5376 ;; Hardware stack levels used:    1
  5377 ;; Hardware stack levels required when called:    4
  5378 ;; This function calls:
  5379 ;;		___lldiv
  5380 ;;		___llmod
  5381 ;;		_send_char
  5382 ;; This function is called by:
  5383 ;;		_ultrasonic
  5384 ;;		_analog_sen
  5385 ;; This function uses a non-reentrant model
  5386 ;;
  5387                           psect	text1061
  5388                           	file	"PR23.c"
  5389                           	line	311
  5390                           	global	__size_of_dis_num
  5391  0159                     	__size_of_dis_num	equ	__end_of_dis_num-_dis_num
  5392                           	
  5393  03F3                     _dis_num:	
  5394                           	opt	stack 2
  5395                           ; Regs used in _dis_num: [wreg+status,2+status,0+pclath+cstack]
  5396                           	line	318
  5397                           	
  5398  03F3                     l4219:	
  5399                           ;PR23.c: 312: unsigned char hundred_thousand;
  5400                           ;PR23.c: 313: unsigned char ten_thousand;
  5401                           ;PR23.c: 314: unsigned char thousand;
  5402                           ;PR23.c: 315: unsigned char hundred;
  5403                           ;PR23.c: 316: unsigned char tenth;
  5404                           ;PR23.c: 318: hundred_thousand = data/100000;
  5405  03F3  3000               	movlw	0
  5406  03F4  1283               	bcf	status, 5	;RP0=0, select bank0
  5407  03F5  1303               	bcf	status, 6	;RP1=0, select bank0
  5408  03F6  00A3               	movwf	(?___lldiv+3)
  5409  03F7  3001               	movlw	01h
  5410  03F8  00A2               	movwf	(?___lldiv+2)
  5411  03F9  3086               	movlw	086h
  5412  03FA  00A1               	movwf	(?___lldiv+1)
  5413  03FB  30A0               	movlw	0A0h
  5414  03FC  00A0               	movwf	(?___lldiv)
  5415                           
  5416  03FD  0831               	movf	(dis_num@data+3),w
  5417  03FE  00A7               	movwf	3+(?___lldiv)+04h
  5418  03FF  0830               	movf	(dis_num@data+2),w
  5419  0400  00A6               	movwf	2+(?___lldiv)+04h
  5420  0401  082F               	movf	(dis_num@data+1),w
  5421  0402  00A5               	movwf	1+(?___lldiv)+04h
  5422  0403  082E               	movf	(dis_num@data),w
  5423  0404  00A4               	movwf	0+(?___lldiv)+04h
  5424                           
  5425  0405  120A  158A  24DC   	fcall	___lldiv
              120A  118A         
  5426  040A  1283               	bcf	status, 5	;RP0=0, select bank0
  5427  040B  1303               	bcf	status, 6	;RP1=0, select bank0
  5428  040C  0820               	movf	0+(((0+(?___lldiv)))),w
  5429  040D  00B2               	movwf	(??_dis_num+0)+0
  5430  040E  0832               	movf	(??_dis_num+0)+0,w
  5431  040F  00B3               	movwf	(dis_num@hundred_thousand)
  5432                           	line	319
  5433                           ;PR23.c: 319: data = data % 100000;
  5434  0410  3000               	movlw	0
  5435  0411  00A3               	movwf	(?___llmod+3)
  5436  0412  3001               	movlw	01h
  5437  0413  00A2               	movwf	(?___llmod+2)
  5438  0414  3086               	movlw	086h
  5439  0415  00A1               	movwf	(?___llmod+1)
  5440  0416  30A0               	movlw	0A0h
  5441  0417  00A0               	movwf	(?___llmod)
  5442                           
  5443  0418  0831               	movf	(dis_num@data+3),w
  5444  0419  00A7               	movwf	3+(?___llmod)+04h
  5445  041A  0830               	movf	(dis_num@data+2),w
  5446  041B  00A6               	movwf	2+(?___llmod)+04h
  5447  041C  082F               	movf	(dis_num@data+1),w
  5448  041D  00A5               	movwf	1+(?___llmod)+04h
  5449  041E  082E               	movf	(dis_num@data),w
  5450  041F  00A4               	movwf	0+(?___llmod)+04h
  5451                           
  5452  0420  120A  158A  247E   	fcall	___llmod
              120A  118A         
  5453  0425  1283               	bcf	status, 5	;RP0=0, select bank0
  5454  0426  1303               	bcf	status, 6	;RP1=0, select bank0
  5455  0427  0823               	movf	(3+(?___llmod)),w
  5456  0428  00B1               	movwf	(dis_num@data+3)
  5457  0429  0822               	movf	(2+(?___llmod)),w
  5458  042A  00B0               	movwf	(dis_num@data+2)
  5459  042B  0821               	movf	(1+(?___llmod)),w
  5460  042C  00AF               	movwf	(dis_num@data+1)
  5461  042D  0820               	movf	(0+(?___llmod)),w
  5462  042E  00AE               	movwf	(dis_num@data)
  5463                           
  5464                           	line	320
  5465                           ;PR23.c: 320: ten_thousand = data/10000;
  5466  042F  3000               	movlw	0
  5467  0430  00A3               	movwf	(?___lldiv+3)
  5468  0431  3000               	movlw	0
  5469  0432  00A2               	movwf	(?___lldiv+2)
  5470  0433  3027               	movlw	027h
  5471  0434  00A1               	movwf	(?___lldiv+1)
  5472  0435  3010               	movlw	010h
  5473  0436  00A0               	movwf	(?___lldiv)
  5474                           
  5475  0437  0831               	movf	(dis_num@data+3),w
  5476  0438  00A7               	movwf	3+(?___lldiv)+04h
  5477  0439  0830               	movf	(dis_num@data+2),w
  5478  043A  00A6               	movwf	2+(?___lldiv)+04h
  5479  043B  082F               	movf	(dis_num@data+1),w
  5480  043C  00A5               	movwf	1+(?___lldiv)+04h
  5481  043D  082E               	movf	(dis_num@data),w
  5482  043E  00A4               	movwf	0+(?___lldiv)+04h
  5483                           
  5484  043F  120A  158A  24DC   	fcall	___lldiv
              120A  118A         
  5485  0444  1283               	bcf	status, 5	;RP0=0, select bank0
  5486  0445  1303               	bcf	status, 6	;RP1=0, select bank0
  5487  0446  0820               	movf	0+(((0+(?___lldiv)))),w
  5488  0447  00B2               	movwf	(??_dis_num+0)+0
  5489  0448  0832               	movf	(??_dis_num+0)+0,w
  5490  0449  00B4               	movwf	(dis_num@ten_thousand)
  5491                           	line	321
  5492                           ;PR23.c: 321: data = data % 10000;
  5493  044A  3000               	movlw	0
  5494  044B  00A3               	movwf	(?___llmod+3)
  5495  044C  3000               	movlw	0
  5496  044D  00A2               	movwf	(?___llmod+2)
  5497  044E  3027               	movlw	027h
  5498  044F  00A1               	movwf	(?___llmod+1)
  5499  0450  3010               	movlw	010h
  5500  0451  00A0               	movwf	(?___llmod)
  5501                           
  5502  0452  0831               	movf	(dis_num@data+3),w
  5503  0453  00A7               	movwf	3+(?___llmod)+04h
  5504  0454  0830               	movf	(dis_num@data+2),w
  5505  0455  00A6               	movwf	2+(?___llmod)+04h
  5506  0456  082F               	movf	(dis_num@data+1),w
  5507  0457  00A5               	movwf	1+(?___llmod)+04h
  5508  0458  082E               	movf	(dis_num@data),w
  5509  0459  00A4               	movwf	0+(?___llmod)+04h
  5510                           
  5511  045A  120A  158A  247E   	fcall	___llmod
              120A  118A         
  5512  045F  1283               	bcf	status, 5	;RP0=0, select bank0
  5513  0460  1303               	bcf	status, 6	;RP1=0, select bank0
  5514  0461  0823               	movf	(3+(?___llmod)),w
  5515  0462  00B1               	movwf	(dis_num@data+3)
  5516  0463  0822               	movf	(2+(?___llmod)),w
  5517  0464  00B0               	movwf	(dis_num@data+2)
  5518  0465  0821               	movf	(1+(?___llmod)),w
  5519  0466  00AF               	movwf	(dis_num@data+1)
  5520  0467  0820               	movf	(0+(?___llmod)),w
  5521  0468  00AE               	movwf	(dis_num@data)
  5522                           
  5523                           	line	322
  5524                           ;PR23.c: 322: thousand = data / 1000;
  5525  0469  3000               	movlw	0
  5526  046A  00A3               	movwf	(?___lldiv+3)
  5527  046B  3000               	movlw	0
  5528  046C  00A2               	movwf	(?___lldiv+2)
  5529  046D  3003               	movlw	03h
  5530  046E  00A1               	movwf	(?___lldiv+1)
  5531  046F  30E8               	movlw	0E8h
  5532  0470  00A0               	movwf	(?___lldiv)
  5533                           
  5534  0471  0831               	movf	(dis_num@data+3),w
  5535  0472  00A7               	movwf	3+(?___lldiv)+04h
  5536  0473  0830               	movf	(dis_num@data+2),w
  5537  0474  00A6               	movwf	2+(?___lldiv)+04h
  5538  0475  082F               	movf	(dis_num@data+1),w
  5539  0476  00A5               	movwf	1+(?___lldiv)+04h
  5540  0477  082E               	movf	(dis_num@data),w
  5541  0478  00A4               	movwf	0+(?___lldiv)+04h
  5542                           
  5543  0479  120A  158A  24DC   	fcall	___lldiv
              120A  118A         
  5544  047E  1283               	bcf	status, 5	;RP0=0, select bank0
  5545  047F  1303               	bcf	status, 6	;RP1=0, select bank0
  5546  0480  0820               	movf	0+(((0+(?___lldiv)))),w
  5547  0481  00B2               	movwf	(??_dis_num+0)+0
  5548  0482  0832               	movf	(??_dis_num+0)+0,w
  5549  0483  00B5               	movwf	(dis_num@thousand)
  5550                           	line	323
  5551                           ;PR23.c: 323: data = data % 1000;
  5552  0484  3000               	movlw	0
  5553  0485  00A3               	movwf	(?___llmod+3)
  5554  0486  3000               	movlw	0
  5555  0487  00A2               	movwf	(?___llmod+2)
  5556  0488  3003               	movlw	03h
  5557  0489  00A1               	movwf	(?___llmod+1)
  5558  048A  30E8               	movlw	0E8h
  5559  048B  00A0               	movwf	(?___llmod)
  5560                           
  5561  048C  0831               	movf	(dis_num@data+3),w
  5562  048D  00A7               	movwf	3+(?___llmod)+04h
  5563  048E  0830               	movf	(dis_num@data+2),w
  5564  048F  00A6               	movwf	2+(?___llmod)+04h
  5565  0490  082F               	movf	(dis_num@data+1),w
  5566  0491  00A5               	movwf	1+(?___llmod)+04h
  5567  0492  082E               	movf	(dis_num@data),w
  5568  0493  00A4               	movwf	0+(?___llmod)+04h
  5569                           
  5570  0494  120A  158A  247E   	fcall	___llmod
              120A  118A         
  5571  0499  1283               	bcf	status, 5	;RP0=0, select bank0
  5572  049A  1303               	bcf	status, 6	;RP1=0, select bank0
  5573  049B  0823               	movf	(3+(?___llmod)),w
  5574  049C  00B1               	movwf	(dis_num@data+3)
  5575  049D  0822               	movf	(2+(?___llmod)),w
  5576  049E  00B0               	movwf	(dis_num@data+2)
  5577  049F  0821               	movf	(1+(?___llmod)),w
  5578  04A0  00AF               	movwf	(dis_num@data+1)
  5579  04A1  0820               	movf	(0+(?___llmod)),w
  5580  04A2  00AE               	movwf	(dis_num@data)
  5581                           
  5582                           	line	324
  5583                           ;PR23.c: 324: hundred = data / 100;
  5584  04A3  3000               	movlw	0
  5585  04A4  00A3               	movwf	(?___lldiv+3)
  5586  04A5  3000               	movlw	0
  5587  04A6  00A2               	movwf	(?___lldiv+2)
  5588  04A7  3000               	movlw	0
  5589  04A8  00A1               	movwf	(?___lldiv+1)
  5590  04A9  3064               	movlw	064h
  5591  04AA  00A0               	movwf	(?___lldiv)
  5592                           
  5593  04AB  0831               	movf	(dis_num@data+3),w
  5594  04AC  00A7               	movwf	3+(?___lldiv)+04h
  5595  04AD  0830               	movf	(dis_num@data+2),w
  5596  04AE  00A6               	movwf	2+(?___lldiv)+04h
  5597  04AF  082F               	movf	(dis_num@data+1),w
  5598  04B0  00A5               	movwf	1+(?___lldiv)+04h
  5599  04B1  082E               	movf	(dis_num@data),w
  5600  04B2  00A4               	movwf	0+(?___lldiv)+04h
  5601                           
  5602  04B3  120A  158A  24DC   	fcall	___lldiv
              120A  118A         
  5603  04B8  1283               	bcf	status, 5	;RP0=0, select bank0
  5604  04B9  1303               	bcf	status, 6	;RP1=0, select bank0
  5605  04BA  0820               	movf	0+(((0+(?___lldiv)))),w
  5606  04BB  00B2               	movwf	(??_dis_num+0)+0
  5607  04BC  0832               	movf	(??_dis_num+0)+0,w
  5608  04BD  00B6               	movwf	(dis_num@hundred)
  5609                           	line	325
  5610                           ;PR23.c: 325: data = data % 100;
  5611  04BE  3000               	movlw	0
  5612  04BF  00A3               	movwf	(?___llmod+3)
  5613  04C0  3000               	movlw	0
  5614  04C1  00A2               	movwf	(?___llmod+2)
  5615  04C2  3000               	movlw	0
  5616  04C3  00A1               	movwf	(?___llmod+1)
  5617  04C4  3064               	movlw	064h
  5618  04C5  00A0               	movwf	(?___llmod)
  5619                           
  5620  04C6  0831               	movf	(dis_num@data+3),w
  5621  04C7  00A7               	movwf	3+(?___llmod)+04h
  5622  04C8  0830               	movf	(dis_num@data+2),w
  5623  04C9  00A6               	movwf	2+(?___llmod)+04h
  5624  04CA  082F               	movf	(dis_num@data+1),w
  5625  04CB  00A5               	movwf	1+(?___llmod)+04h
  5626  04CC  082E               	movf	(dis_num@data),w
  5627  04CD  00A4               	movwf	0+(?___llmod)+04h
  5628                           
  5629  04CE  120A  158A  247E   	fcall	___llmod
              120A  118A         
  5630  04D3  1283               	bcf	status, 5	;RP0=0, select bank0
  5631  04D4  1303               	bcf	status, 6	;RP1=0, select bank0
  5632  04D5  0823               	movf	(3+(?___llmod)),w
  5633  04D6  00B1               	movwf	(dis_num@data+3)
  5634  04D7  0822               	movf	(2+(?___llmod)),w
  5635  04D8  00B0               	movwf	(dis_num@data+2)
  5636  04D9  0821               	movf	(1+(?___llmod)),w
  5637  04DA  00AF               	movwf	(dis_num@data+1)
  5638  04DB  0820               	movf	(0+(?___llmod)),w
  5639  04DC  00AE               	movwf	(dis_num@data)
  5640                           
  5641                           	line	326
  5642                           ;PR23.c: 326: tenth = data / 10;
  5643  04DD  3000               	movlw	0
  5644  04DE  00A3               	movwf	(?___lldiv+3)
  5645  04DF  3000               	movlw	0
  5646  04E0  00A2               	movwf	(?___lldiv+2)
  5647  04E1  3000               	movlw	0
  5648  04E2  00A1               	movwf	(?___lldiv+1)
  5649  04E3  300A               	movlw	0Ah
  5650  04E4  00A0               	movwf	(?___lldiv)
  5651                           
  5652  04E5  0831               	movf	(dis_num@data+3),w
  5653  04E6  00A7               	movwf	3+(?___lldiv)+04h
  5654  04E7  0830               	movf	(dis_num@data+2),w
  5655  04E8  00A6               	movwf	2+(?___lldiv)+04h
  5656  04E9  082F               	movf	(dis_num@data+1),w
  5657  04EA  00A5               	movwf	1+(?___lldiv)+04h
  5658  04EB  082E               	movf	(dis_num@data),w
  5659  04EC  00A4               	movwf	0+(?___lldiv)+04h
  5660                           
  5661  04ED  120A  158A  24DC   	fcall	___lldiv
              120A  118A         
  5662  04F2  1283               	bcf	status, 5	;RP0=0, select bank0
  5663  04F3  1303               	bcf	status, 6	;RP1=0, select bank0
  5664  04F4  0820               	movf	0+(((0+(?___lldiv)))),w
  5665  04F5  00B2               	movwf	(??_dis_num+0)+0
  5666  04F6  0832               	movf	(??_dis_num+0)+0,w
  5667  04F7  00B7               	movwf	(dis_num@tenth)
  5668                           	line	327
  5669                           ;PR23.c: 327: data = data % 10;
  5670  04F8  3000               	movlw	0
  5671  04F9  00A3               	movwf	(?___llmod+3)
  5672  04FA  3000               	movlw	0
  5673  04FB  00A2               	movwf	(?___llmod+2)
  5674  04FC  3000               	movlw	0
  5675  04FD  00A1               	movwf	(?___llmod+1)
  5676  04FE  300A               	movlw	0Ah
  5677  04FF  00A0               	movwf	(?___llmod)
  5678                           
  5679  0500  0831               	movf	(dis_num@data+3),w
  5680  0501  00A7               	movwf	3+(?___llmod)+04h
  5681  0502  0830               	movf	(dis_num@data+2),w
  5682  0503  00A6               	movwf	2+(?___llmod)+04h
  5683  0504  082F               	movf	(dis_num@data+1),w
  5684  0505  00A5               	movwf	1+(?___llmod)+04h
  5685  0506  082E               	movf	(dis_num@data),w
  5686  0507  00A4               	movwf	0+(?___llmod)+04h
  5687                           
  5688  0508  120A  158A  247E   	fcall	___llmod
              120A  118A         
  5689  050D  1283               	bcf	status, 5	;RP0=0, select bank0
  5690  050E  1303               	bcf	status, 6	;RP1=0, select bank0
  5691  050F  0823               	movf	(3+(?___llmod)),w
  5692  0510  00B1               	movwf	(dis_num@data+3)
  5693  0511  0822               	movf	(2+(?___llmod)),w
  5694  0512  00B0               	movwf	(dis_num@data+2)
  5695  0513  0821               	movf	(1+(?___llmod)),w
  5696  0514  00AF               	movwf	(dis_num@data+1)
  5697  0515  0820               	movf	(0+(?___llmod)),w
  5698  0516  00AE               	movwf	(dis_num@data)
  5699                           
  5700                           	line	329
  5701                           ;PR23.c: 329: send_char(hundred_thousand + 0x30);
  5702  0517  0833               	movf	(dis_num@hundred_thousand),w
  5703  0518  3E30               	addlw	030h
  5704  0519  120A  158A  2304   	fcall	_send_char
              120A  118A         
  5705                           	line	330
  5706                           ;PR23.c: 330: send_char(ten_thousand + 0x30);
  5707  051E  1283               	bcf	status, 5	;RP0=0, select bank0
  5708  051F  1303               	bcf	status, 6	;RP1=0, select bank0
  5709  0520  0834               	movf	(dis_num@ten_thousand),w
  5710  0521  3E30               	addlw	030h
  5711  0522  120A  158A  2304   	fcall	_send_char
              120A  118A         
  5712                           	line	331
  5713                           ;PR23.c: 331: send_char(thousand + 0x30);
  5714  0527  1283               	bcf	status, 5	;RP0=0, select bank0
  5715  0528  1303               	bcf	status, 6	;RP1=0, select bank0
  5716  0529  0835               	movf	(dis_num@thousand),w
  5717  052A  3E30               	addlw	030h
  5718  052B  120A  158A  2304   	fcall	_send_char
              120A  118A         
  5719                           	line	332
  5720                           ;PR23.c: 332: send_char(hundred + 0x30);
  5721  0530  1283               	bcf	status, 5	;RP0=0, select bank0
  5722  0531  1303               	bcf	status, 6	;RP1=0, select bank0
  5723  0532  0836               	movf	(dis_num@hundred),w
  5724  0533  3E30               	addlw	030h
  5725  0534  120A  158A  2304   	fcall	_send_char
              120A  118A         
  5726                           	line	333
  5727                           ;PR23.c: 333: send_char(tenth + 0x30);
  5728  0539  1283               	bcf	status, 5	;RP0=0, select bank0
  5729  053A  1303               	bcf	status, 6	;RP1=0, select bank0
  5730  053B  0837               	movf	(dis_num@tenth),w
  5731  053C  3E30               	addlw	030h
  5732  053D  120A  158A  2304   	fcall	_send_char
              120A  118A         
  5733                           	line	334
  5734                           ;PR23.c: 334: send_char(data + 0x30);
  5735  0542  1283               	bcf	status, 5	;RP0=0, select bank0
  5736  0543  1303               	bcf	status, 6	;RP1=0, select bank0
  5737  0544  082E               	movf	(dis_num@data),w
  5738  0545  3E30               	addlw	030h
  5739  0546  120A  158A  2304   	fcall	_send_char
              120A  118A         
  5740                           	line	335
  5741                           	
  5742  054B                     l703:	
  5743  054B  0008               	return
  5744                           	opt stack 0
  5745                           GLOBAL	__end_of_dis_num
  5746  054C                     	__end_of_dis_num:
  5747 ;; =============== function _dis_num ends ============
  5748                           
  5749                           	signat	_dis_num,4216
  5750                           	global	_lcd_goto
  5751                           psect	text1062,local,class=CODE,delta=2
  5752                           global __ptext1062
  5753  0B3E                     __ptext1062:
  5754                           
  5755 ;; *************** function _lcd_goto *****************
  5756 ;; Defined at:
  5757 ;;		line 285 in file "PR23.c"
  5758 ;; Parameters:    Size  Location     Type
  5759 ;;  data            1    wreg     unsigned char 
  5760 ;; Auto vars:     Size  Location     Type
  5761 ;;  data            1   10[BANK0 ] unsigned char 
  5762 ;; Return value:  Size  Location     Type
  5763 ;;		None               void
  5764 ;; Registers used:
  5765 ;;		wreg, status,2, status,0, pclath, cstack
  5766 ;; Tracked objects:
  5767 ;;		On entry : 0/0
  5768 ;;		On exit  : 0/0
  5769 ;;		Unchanged: 0/0
  5770 ;; Data sizes:     COMMON   BANK0   BANK1   BANK3   BANK2
  5771 ;;      Params:         0       0       0       0       0
  5772 ;;      Locals:         0       1       0       0       0
  5773 ;;      Temps:          0       1       0       0       0
  5774 ;;      Totals:         0       2       0       0       0
  5775 ;;Total ram usage:        2 bytes
  5776 ;; Hardware stack levels used:    1
  5777 ;; Hardware stack levels required when called:    4
  5778 ;; This function calls:
  5779 ;;		_send_config
  5780 ;; This function is called by:
  5781 ;;		_main
  5782 ;;		_line_follow
  5783 ;;		_ultrasonic
  5784 ;;		_analog_sen
  5785 ;;		_wireless_xbee
  5786 ;;		_SKPS_PScon
  5787 ;;		_us_value
  5788 ;; This function uses a non-reentrant model
  5789 ;;
  5790                           psect	text1062
  5791                           	file	"PR23.c"
  5792                           	line	285
  5793                           	global	__size_of_lcd_goto
  5794  0021                     	__size_of_lcd_goto	equ	__end_of_lcd_goto-_lcd_goto
  5795                           	
  5796  0B3E                     _lcd_goto:	
  5797                           	opt	stack 2
  5798                           ; Regs used in _lcd_goto: [wreg+status,2+status,0+pclath+cstack]
  5799                           ;lcd_goto@data stored from wreg
  5800  0B3E  1283               	bcf	status, 5	;RP0=0, select bank0
  5801  0B3F  1303               	bcf	status, 6	;RP1=0, select bank0
  5802  0B40  00AA               	movwf	(lcd_goto@data)
  5803                           	line	286
  5804                           	
  5805  0B41                     l4211:	
  5806                           ;PR23.c: 286: if(data<16)
  5807  0B41  3010               	movlw	(010h)
  5808  0B42  022A               	subwf	(lcd_goto@data),w
  5809  0B43  1803               	skipnc
  5810  0B44  2B46               	goto	u4931
  5811  0B45  2B47               	goto	u4930
  5812  0B46                     u4931:
  5813  0B46  2B4F               	goto	l4215
  5814  0B47                     u4930:
  5815                           	line	288
  5816                           	
  5817  0B47                     l4213:	
  5818                           ;PR23.c: 287: {
  5819                           ;PR23.c: 288: send_config(0x80+data);
  5820  0B47  082A               	movf	(lcd_goto@data),w
  5821  0B48  3E80               	addlw	080h
  5822  0B49  120A  158A  22EB   	fcall	_send_config
              120A  158A         
  5823                           	line	289
  5824                           ;PR23.c: 289: }
  5825  0B4E  2B5E               	goto	l689
  5826                           	line	290
  5827                           	
  5828  0B4F                     l687:	
  5829                           	line	292
  5830                           	
  5831  0B4F                     l4215:	
  5832                           ;PR23.c: 290: else
  5833                           ;PR23.c: 291: {
  5834                           ;PR23.c: 292: data=data-20;
  5835  0B4F  1283               	bcf	status, 5	;RP0=0, select bank0
  5836  0B50  1303               	bcf	status, 6	;RP1=0, select bank0
  5837  0B51  082A               	movf	(lcd_goto@data),w
  5838  0B52  3EEC               	addlw	0ECh
  5839  0B53  00A9               	movwf	(??_lcd_goto+0)+0
  5840  0B54  0829               	movf	(??_lcd_goto+0)+0,w
  5841  0B55  00AA               	movwf	(lcd_goto@data)
  5842                           	line	293
  5843                           	
  5844  0B56                     l4217:	
  5845                           ;PR23.c: 293: send_config(0xc0+data);
  5846  0B56  082A               	movf	(lcd_goto@data),w
  5847  0B57  3EC0               	addlw	0C0h
  5848  0B58  120A  158A  22EB   	fcall	_send_config
              120A  158A         
  5849  0B5D  2B5E               	goto	l689
  5850                           	line	294
  5851                           	
  5852  0B5E                     l688:	
  5853                           	line	297
  5854                           	
  5855  0B5E                     l689:	
  5856  0B5E  0008               	return
  5857                           	opt stack 0
  5858                           GLOBAL	__end_of_lcd_goto
  5859  0B5F                     	__end_of_lcd_goto:
  5860 ;; =============== function _lcd_goto ends ============
  5861                           
  5862                           	signat	_lcd_goto,4216
  5863                           	global	_send_string
  5864                           psect	text1063,local,class=CODE,delta=2
  5865                           global __ptext1063
  5866  0C11                     __ptext1063:
  5867                           
  5868 ;; *************** function _send_string *****************
  5869 ;; Defined at:
  5870 ;;		line 306 in file "PR23.c"
  5871 ;; Parameters:    Size  Location     Type
  5872 ;;  s               2    9[BANK0 ] PTR const unsigned char 
  5873 ;;		 -> STR_30(14), STR_29(14), STR_28(17), STR_27(8), 
  5874 ;;		 -> STR_26(18), STR_25(18), STR_24(17), STR_23(17), 
  5875 ;;		 -> STR_22(17), STR_21(16), STR_20(17), STR_19(9), 
  5876 ;;		 -> STR_18(9), STR_17(5), STR_16(5), STR_15(5), 
  5877 ;;		 -> STR_14(4), STR_13(13), STR_12(8), STR_11(9), 
  5878 ;;		 -> STR_10(11), STR_9(11), STR_8(8), STR_7(11), 
  5879 ;;		 -> STR_6(11), STR_5(9), STR_4(8), STR_3(9), 
  5880 ;;		 -> STR_2(8), STR_1(12), SKPS(7), XB(9), 
  5881 ;;		 -> AS(16), US(13), line(14), 
  5882 ;; Auto vars:     Size  Location     Type
  5883 ;;		None
  5884 ;; Return value:  Size  Location     Type
  5885 ;;		None               void
  5886 ;; Registers used:
  5887 ;;		wreg, fsr0l, fsr0h, status,2, status,0, btemp+1, pclath, cstack
  5888 ;; Tracked objects:
  5889 ;;		On entry : 0/0
  5890 ;;		On exit  : 0/0
  5891 ;;		Unchanged: 0/0
  5892 ;; Data sizes:     COMMON   BANK0   BANK1   BANK3   BANK2
  5893 ;;      Params:         0       2       0       0       0
  5894 ;;      Locals:         0       0       0       0       0
  5895 ;;      Temps:          0       0       0       0       0
  5896 ;;      Totals:         0       2       0       0       0
  5897 ;;Total ram usage:        2 bytes
  5898 ;; Hardware stack levels used:    1
  5899 ;; Hardware stack levels required when called:    4
  5900 ;; This function calls:
  5901 ;;		_send_char
  5902 ;; This function is called by:
  5903 ;;		_main
  5904 ;;		_line_follow
  5905 ;;		_ultrasonic
  5906 ;;		_analog_sen
  5907 ;;		_wireless_xbee
  5908 ;;		_SKPS_PScon
  5909 ;;		_us_value
  5910 ;; This function uses a non-reentrant model
  5911 ;;
  5912                           psect	text1063
  5913                           	file	"PR23.c"
  5914                           	line	306
  5915                           	global	__size_of_send_string
  5916  0033                     	__size_of_send_string	equ	__end_of_send_string-_send_string
  5917                           	
  5918  0C11                     _send_string:	
  5919                           	opt	stack 2
  5920                           ; Regs used in _send_string: [wreg-fsr0h+status,2+status,0+btemp+1+pclath+cstack]
  5921                           	line	307
  5922                           	
  5923  0C11                     l4201:	
  5924                           ;PR23.c: 307: while (s && *s)send_char (*s++);
  5925  0C11  2C2B               	goto	l4207
  5926                           	
  5927  0C12                     l696:	
  5928                           	
  5929  0C12                     l4203:	
  5930  0C12  1283               	bcf	status, 5	;RP0=0, select bank0
  5931  0C13  1303               	bcf	status, 6	;RP1=0, select bank0
  5932  0C14  082A               	movf	(send_string@s+1),w
  5933  0C15  00FF               	movwf	btemp+1
  5934  0C16  0829               	movf	(send_string@s),w
  5935  0C17  0084               	movwf	fsr0
  5936  0C18  160A  118A  2000   	fcall	stringtab
              120A  158A         
  5937  0C1D  120A  158A  2304   	fcall	_send_char
              120A  158A         
  5938                           	
  5939  0C22                     l4205:	
  5940  0C22  3001               	movlw	low(01h)
  5941  0C23  1283               	bcf	status, 5	;RP0=0, select bank0
  5942  0C24  1303               	bcf	status, 6	;RP1=0, select bank0
  5943  0C25  07A9               	addwf	(send_string@s),f
  5944  0C26  1803               	skipnc
  5945  0C27  0AAA               	incf	(send_string@s+1),f
  5946  0C28  3000               	movlw	high(01h)
  5947  0C29  07AA               	addwf	(send_string@s+1),f
  5948  0C2A  2C2B               	goto	l4207
  5949                           	
  5950  0C2B                     l695:	
  5951                           	
  5952  0C2B                     l4207:	
  5953  0C2B  1283               	bcf	status, 5	;RP0=0, select bank0
  5954  0C2C  1303               	bcf	status, 6	;RP1=0, select bank0
  5955  0C2D  082A               	movf	(send_string@s+1),w
  5956  0C2E  0429               	iorwf	(send_string@s),w
  5957  0C2F  1903               	skipnz
  5958  0C30  2C32               	goto	u4911
  5959  0C31  2C33               	goto	u4910
  5960  0C32                     u4911:
  5961  0C32  2C43               	goto	l700
  5962  0C33                     u4910:
  5963                           	
  5964  0C33                     l4209:	
  5965  0C33  082A               	movf	(send_string@s+1),w
  5966  0C34  00FF               	movwf	btemp+1
  5967  0C35  0829               	movf	(send_string@s),w
  5968  0C36  0084               	movwf	fsr0
  5969  0C37  160A  118A  2000   	fcall	stringtab
              120A  158A         
  5970  0C3C  3800               	iorlw	0
  5971  0C3D  1D03               	skipz
  5972  0C3E  2C40               	goto	u4921
  5973  0C3F  2C41               	goto	u4920
  5974  0C40                     u4921:
  5975  0C40  2C12               	goto	l4203
  5976  0C41                     u4920:
  5977  0C41  2C43               	goto	l700
  5978                           	
  5979  0C42                     l698:	
  5980  0C42  2C43               	goto	l700
  5981                           	
  5982  0C43                     l699:	
  5983                           	line	308
  5984                           	
  5985  0C43                     l700:	
  5986  0C43  0008               	return
  5987                           	opt stack 0
  5988                           GLOBAL	__end_of_send_string
  5989  0C44                     	__end_of_send_string:
  5990 ;; =============== function _send_string ends ============
  5991                           
  5992                           	signat	_send_string,4216
  5993                           	global	_lcd_clr
  5994                           psect	text1064,local,class=CODE,delta=2
  5995                           global __ptext1064
  5996  0AD5                     __ptext1064:
  5997                           
  5998 ;; *************** function _lcd_clr *****************
  5999 ;; Defined at:
  6000 ;;		line 300 in file "PR23.c"
  6001 ;; Parameters:    Size  Location     Type
  6002 ;;		None
  6003 ;; Auto vars:     Size  Location     Type
  6004 ;;		None
  6005 ;; Return value:  Size  Location     Type
  6006 ;;		None               void
  6007 ;; Registers used:
  6008 ;;		wreg, status,2, status,0, pclath, cstack
  6009 ;; Tracked objects:
  6010 ;;		On entry : 0/0
  6011 ;;		On exit  : 0/0
  6012 ;;		Unchanged: 0/0
  6013 ;; Data sizes:     COMMON   BANK0   BANK1   BANK3   BANK2
  6014 ;;      Params:         0       0       0       0       0
  6015 ;;      Locals:         0       0       0       0       0
  6016 ;;      Temps:          0       0       0       0       0
  6017 ;;      Totals:         0       0       0       0       0
  6018 ;;Total ram usage:        0 bytes
  6019 ;; Hardware stack levels used:    1
  6020 ;; Hardware stack levels required when called:    4
  6021 ;; This function calls:
  6022 ;;		_send_config
  6023 ;;		_delay_ms
  6024 ;; This function is called by:
  6025 ;;		_main
  6026 ;;		_line_follow
  6027 ;;		_ultrasonic
  6028 ;;		_analog_sen
  6029 ;;		_wireless_xbee
  6030 ;;		_SKPS_PScon
  6031 ;; This function uses a non-reentrant model
  6032 ;;
  6033                           psect	text1064
  6034                           	file	"PR23.c"
  6035                           	line	300
  6036                           	global	__size_of_lcd_clr
  6037  0016                     	__size_of_lcd_clr	equ	__end_of_lcd_clr-_lcd_clr
  6038                           	
  6039  0AD5                     _lcd_clr:	
  6040                           	opt	stack 2
  6041                           ; Regs used in _lcd_clr: [wreg+status,2+status,0+pclath+cstack]
  6042                           	line	301
  6043                           	
  6044  0AD5                     l4199:	
  6045                           ;PR23.c: 301: send_config(0x01);
  6046  0AD5  3001               	movlw	(01h)
  6047  0AD6  120A  158A  22EB   	fcall	_send_config
              120A  158A         
  6048                           	line	302
  6049                           ;PR23.c: 302: delay_ms(10);
  6050  0ADB  3000               	movlw	0
  6051  0ADC  1283               	bcf	status, 5	;RP0=0, select bank0
  6052  0ADD  1303               	bcf	status, 6	;RP1=0, select bank0
  6053  0ADE  00A3               	movwf	(?_delay_ms+3)
  6054  0ADF  3000               	movlw	0
  6055  0AE0  00A2               	movwf	(?_delay_ms+2)
  6056  0AE1  3000               	movlw	0
  6057  0AE2  00A1               	movwf	(?_delay_ms+1)
  6058  0AE3  300A               	movlw	0Ah
  6059  0AE4  00A0               	movwf	(?_delay_ms)
  6060                           
  6061  0AE5  120A  158A  2444   	fcall	_delay_ms
              120A  158A         
  6062                           	line	303
  6063                           	
  6064  0AEA                     l692:	
  6065  0AEA  0008               	return
  6066                           	opt stack 0
  6067                           GLOBAL	__end_of_lcd_clr
  6068  0AEB                     	__end_of_lcd_clr:
  6069 ;; =============== function _lcd_clr ends ============
  6070                           
  6071                           	signat	_lcd_clr,88
  6072                           	global	_init
  6073                           psect	text1065,local,class=CODE,delta=2
  6074                           global __ptext1065
  6075  0E49                     __ptext1065:
  6076                           
  6077 ;; *************** function _init *****************
  6078 ;; Defined at:
  6079 ;;		line 374 in file "PR23.c"
  6080 ;; Parameters:    Size  Location     Type
  6081 ;;		None
  6082 ;; Auto vars:     Size  Location     Type
  6083 ;;		None
  6084 ;; Return value:  Size  Location     Type
  6085 ;;		None               void
  6086 ;; Registers used:
  6087 ;;		wreg, status,2, status,0, pclath, cstack
  6088 ;; Tracked objects:
  6089 ;;		On entry : 0/0
  6090 ;;		On exit  : 0/0
  6091 ;;		Unchanged: 0/0
  6092 ;; Data sizes:     COMMON   BANK0   BANK1   BANK3   BANK2
  6093 ;;      Params:         0       0       0       0       0
  6094 ;;      Locals:         0       0       0       0       0
  6095 ;;      Temps:          0       0       0       0       0
  6096 ;;      Totals:         0       0       0       0       0
  6097 ;;Total ram usage:        0 bytes
  6098 ;; Hardware stack levels used:    1
  6099 ;; Hardware stack levels required when called:    4
  6100 ;; This function calls:
  6101 ;;		_delay_ms
  6102 ;;		_send_config
  6103 ;;		_stop
  6104 ;; This function is called by:
  6105 ;;		_main
  6106 ;; This function uses a non-reentrant model
  6107 ;;
  6108                           psect	text1065
  6109                           	file	"PR23.c"
  6110                           	line	374
  6111                           	global	__size_of_init
  6112  008E                     	__size_of_init	equ	__end_of_init-_init
  6113                           	
  6114  0E49                     _init:	
  6115                           	opt	stack 3
  6116                           ; Regs used in _init: [wreg+status,2+status,0+pclath+cstack]
  6117                           	line	375
  6118                           	
  6119  0E49                     l4119:	
  6120                           ;PR23.c: 375: PORTA = 0;
  6121  0E49  1283               	bcf	status, 5	;RP0=0, select bank0
  6122  0E4A  1303               	bcf	status, 6	;RP1=0, select bank0
  6123  0E4B  0185               	clrf	(5)	;volatile
  6124                           	line	376
  6125                           ;PR23.c: 376: PORTB = 0;
  6126  0E4C  0186               	clrf	(6)	;volatile
  6127                           	line	377
  6128                           ;PR23.c: 377: PORTC = 0;
  6129  0E4D  0187               	clrf	(7)	;volatile
  6130                           	line	378
  6131                           ;PR23.c: 378: PORTD = 0;
  6132  0E4E  0188               	clrf	(8)	;volatile
  6133                           	line	379
  6134                           ;PR23.c: 379: PORTE = 0;
  6135  0E4F  0189               	clrf	(9)	;volatile
  6136                           	line	382
  6137                           	
  6138  0E50                     l4121:	
  6139                           ;PR23.c: 382: TRISA = 0b00110011;
  6140  0E50  3033               	movlw	(033h)
  6141  0E51  1683               	bsf	status, 5	;RP0=1, select bank1
  6142  0E52  1303               	bcf	status, 6	;RP1=0, select bank1
  6143  0E53  0085               	movwf	(133)^080h	;volatile
  6144                           	line	384
  6145                           	
  6146  0E54                     l4123:	
  6147                           ;PR23.c: 384: TRISB = 0b00011111;
  6148  0E54  301F               	movlw	(01Fh)
  6149  0E55  0086               	movwf	(134)^080h	;volatile
  6150                           	line	385
  6151                           	
  6152  0E56                     l4125:	
  6153                           ;PR23.c: 385: TRISC = 0b10000000;
  6154  0E56  3080               	movlw	(080h)
  6155  0E57  0087               	movwf	(135)^080h	;volatile
  6156                           	line	386
  6157                           	
  6158  0E58                     l4127:	
  6159                           ;PR23.c: 386: TRISD = 0b00000000;
  6160  0E58  0188               	clrf	(136)^080h	;volatile
  6161                           	line	387
  6162                           ;PR23.c: 387: TRISE = 0b00000011;
  6163  0E59  3003               	movlw	(03h)
  6164  0E5A  0089               	movwf	(137)^080h	;volatile
  6165                           	line	388
  6166                           	
  6167  0E5B                     l4129:	
  6168                           ;PR23.c: 388: delay_ms(10);
  6169  0E5B  3000               	movlw	0
  6170  0E5C  1283               	bcf	status, 5	;RP0=0, select bank0
  6171  0E5D  1303               	bcf	status, 6	;RP1=0, select bank0
  6172  0E5E  00A3               	movwf	(?_delay_ms+3)
  6173  0E5F  3000               	movlw	0
  6174  0E60  00A2               	movwf	(?_delay_ms+2)
  6175  0E61  3000               	movlw	0
  6176  0E62  00A1               	movwf	(?_delay_ms+1)
  6177  0E63  300A               	movlw	0Ah
  6178  0E64  00A0               	movwf	(?_delay_ms)
  6179                           
  6180  0E65  120A  158A  2444   	fcall	_delay_ms
              120A  158A         
  6181                           	line	390
  6182                           	
  6183  0E6A                     l4131:	
  6184                           ;PR23.c: 390: ADCON1 = 0b10000100;
  6185  0E6A  3084               	movlw	(084h)
  6186  0E6B  1683               	bsf	status, 5	;RP0=1, select bank1
  6187  0E6C  1303               	bcf	status, 6	;RP1=0, select bank1
  6188  0E6D  009F               	movwf	(159)^080h	;volatile
  6189                           	line	394
  6190                           	
  6191  0E6E                     l4133:	
  6192                           ;PR23.c: 394: RBIE = 1;
  6193  0E6E  158B               	bsf	(91/8),(91)&7
  6194                           	line	397
  6195                           	
  6196  0E6F                     l4135:	
  6197                           ;PR23.c: 397: PR2 = 255;
  6198  0E6F  30FF               	movlw	(0FFh)
  6199  0E70  0092               	movwf	(146)^080h	;volatile
  6200                           	line	398
  6201                           	
  6202  0E71                     l4137:	
  6203                           ;PR23.c: 398: T2CON = 0b00000100;
  6204  0E71  3004               	movlw	(04h)
  6205  0E72  1283               	bcf	status, 5	;RP0=0, select bank0
  6206  0E73  1303               	bcf	status, 6	;RP1=0, select bank0
  6207  0E74  0092               	movwf	(18)	;volatile
  6208                           	line	399
  6209                           	
  6210  0E75                     l4139:	
  6211                           ;PR23.c: 399: CCP1CON = 0b00001100;
  6212  0E75  300C               	movlw	(0Ch)
  6213  0E76  0097               	movwf	(23)	;volatile
  6214                           	line	400
  6215                           	
  6216  0E77                     l4141:	
  6217                           ;PR23.c: 400: CCP2CON = 0b00001100;
  6218  0E77  300C               	movlw	(0Ch)
  6219  0E78  009D               	movwf	(29)	;volatile
  6220                           	line	403
  6221                           	
  6222  0E79                     l4143:	
  6223                           ;PR23.c: 403: T0CS = 0;
  6224  0E79  1683               	bsf	status, 5	;RP0=1, select bank1
  6225  0E7A  1303               	bcf	status, 6	;RP1=0, select bank1
  6226  0E7B  1281               	bcf	(1037/8)^080h,(1037)&7
  6227                           	line	404
  6228                           	
  6229  0E7C                     l4145:	
  6230                           ;PR23.c: 404: PSA = 0;
  6231  0E7C  1181               	bcf	(1035/8)^080h,(1035)&7
  6232                           	line	405
  6233                           	
  6234  0E7D                     l4147:	
  6235                           ;PR23.c: 405: PS2 = 1;
  6236  0E7D  1501               	bsf	(1034/8)^080h,(1034)&7
  6237                           	line	406
  6238                           	
  6239  0E7E                     l4149:	
  6240                           ;PR23.c: 406: PS1 = 1;
  6241  0E7E  1481               	bsf	(1033/8)^080h,(1033)&7
  6242                           	line	407
  6243                           	
  6244  0E7F                     l4151:	
  6245                           ;PR23.c: 407: PS0 = 1;
  6246  0E7F  1401               	bsf	(1032/8)^080h,(1032)&7
  6247                           	line	408
  6248                           	
  6249  0E80                     l4153:	
  6250                           ;PR23.c: 408: TMR0IE = 1;
  6251  0E80  168B               	bsf	(93/8),(93)&7
  6252                           	line	409
  6253                           	
  6254  0E81                     l4155:	
  6255                           ;PR23.c: 409: TMR0 = 0;
  6256  0E81  1283               	bcf	status, 5	;RP0=0, select bank0
  6257  0E82  1303               	bcf	status, 6	;RP1=0, select bank0
  6258  0E83  0181               	clrf	(1)	;volatile
  6259                           	line	412
  6260                           	
  6261  0E84                     l4157:	
  6262                           ;PR23.c: 412: SPBRG = 0x81;
  6263  0E84  3081               	movlw	(081h)
  6264  0E85  1683               	bsf	status, 5	;RP0=1, select bank1
  6265  0E86  1303               	bcf	status, 6	;RP1=0, select bank1
  6266  0E87  0099               	movwf	(153)^080h	;volatile
  6267                           	line	413
  6268                           	
  6269  0E88                     l4159:	
  6270                           ;PR23.c: 413: BRGH = 1;
  6271  0E88  1518               	bsf	(1218/8)^080h,(1218)&7
  6272                           	line	414
  6273                           	
  6274  0E89                     l4161:	
  6275                           ;PR23.c: 414: TXEN = 1;
  6276  0E89  1698               	bsf	(1221/8)^080h,(1221)&7
  6277                           	line	415
  6278                           	
  6279  0E8A                     l4163:	
  6280                           ;PR23.c: 415: TX9 = 0;
  6281  0E8A  1318               	bcf	(1222/8)^080h,(1222)&7
  6282                           	line	416
  6283                           	
  6284  0E8B                     l4165:	
  6285                           ;PR23.c: 416: CREN = 1;
  6286  0E8B  1283               	bcf	status, 5	;RP0=0, select bank0
  6287  0E8C  1303               	bcf	status, 6	;RP1=0, select bank0
  6288  0E8D  1618               	bsf	(196/8),(196)&7
  6289                           	line	417
  6290                           	
  6291  0E8E                     l4167:	
  6292                           ;PR23.c: 417: SPEN = 1;
  6293  0E8E  1798               	bsf	(199/8),(199)&7
  6294                           	line	418
  6295                           	
  6296  0E8F                     l4169:	
  6297                           ;PR23.c: 418: RX9 = 0;
  6298  0E8F  1318               	bcf	(198/8),(198)&7
  6299                           	line	419
  6300                           	
  6301  0E90                     l4171:	
  6302                           ;PR23.c: 419: RCIE = 1;
  6303  0E90  1683               	bsf	status, 5	;RP0=1, select bank1
  6304  0E91  1303               	bcf	status, 6	;RP1=0, select bank1
  6305  0E92  168C               	bsf	(1125/8)^080h,(1125)&7
  6306                           	line	422
  6307                           	
  6308  0E93                     l4173:	
  6309                           ;PR23.c: 422: GIE = 1;
  6310  0E93  178B               	bsf	(95/8),(95)&7
  6311                           	line	423
  6312                           	
  6313  0E94                     l4175:	
  6314                           ;PR23.c: 423: PEIE = 1;
  6315  0E94  170B               	bsf	(94/8),(94)&7
  6316                           	line	426
  6317                           	
  6318  0E95                     l4177:	
  6319                           ;PR23.c: 426: RB6 = 1;
  6320  0E95  1283               	bcf	status, 5	;RP0=0, select bank0
  6321  0E96  1303               	bcf	status, 6	;RP1=0, select bank0
  6322  0E97  1706               	bsf	(54/8),(54)&7
  6323                           	line	427
  6324                           	
  6325  0E98                     l4179:	
  6326                           ;PR23.c: 427: delay_ms(15);
  6327  0E98  3000               	movlw	0
  6328  0E99  00A3               	movwf	(?_delay_ms+3)
  6329  0E9A  3000               	movlw	0
  6330  0E9B  00A2               	movwf	(?_delay_ms+2)
  6331  0E9C  3000               	movlw	0
  6332  0E9D  00A1               	movwf	(?_delay_ms+1)
  6333  0E9E  300F               	movlw	0Fh
  6334  0E9F  00A0               	movwf	(?_delay_ms)
  6335                           
  6336  0EA0  120A  158A  2444   	fcall	_delay_ms
              120A  158A         
  6337                           	line	428
  6338                           	
  6339  0EA5                     l4181:	
  6340                           ;PR23.c: 428: send_config(0b00111000);
  6341  0EA5  3038               	movlw	(038h)
  6342  0EA6  120A  158A  22EB   	fcall	_send_config
              120A  158A         
  6343                           	line	429
  6344                           	
  6345  0EAB                     l4183:	
  6346                           ;PR23.c: 429: send_config(0b00000110);
  6347  0EAB  3006               	movlw	(06h)
  6348  0EAC  120A  158A  22EB   	fcall	_send_config
              120A  158A         
  6349                           	line	430
  6350                           	
  6351  0EB1                     l4185:	
  6352                           ;PR23.c: 430: send_config(0b00001100);
  6353  0EB1  300C               	movlw	(0Ch)
  6354  0EB2  120A  158A  22EB   	fcall	_send_config
              120A  158A         
  6355                           	line	431
  6356                           	
  6357  0EB7                     l4187:	
  6358                           ;PR23.c: 431: send_config(0b00000001);
  6359  0EB7  3001               	movlw	(01h)
  6360  0EB8  120A  158A  22EB   	fcall	_send_config
              120A  158A         
  6361                           	line	432
  6362                           	
  6363  0EBD                     l4189:	
  6364                           ;PR23.c: 432: delay_ms(5);
  6365  0EBD  3000               	movlw	0
  6366  0EBE  1283               	bcf	status, 5	;RP0=0, select bank0
  6367  0EBF  1303               	bcf	status, 6	;RP1=0, select bank0
  6368  0EC0  00A3               	movwf	(?_delay_ms+3)
  6369  0EC1  3000               	movlw	0
  6370  0EC2  00A2               	movwf	(?_delay_ms+2)
  6371  0EC3  3000               	movlw	0
  6372  0EC4  00A1               	movwf	(?_delay_ms+1)
  6373  0EC5  3005               	movlw	05h
  6374  0EC6  00A0               	movwf	(?_delay_ms)
  6375                           
  6376  0EC7  120A  158A  2444   	fcall	_delay_ms
              120A  158A         
  6377                           	line	434
  6378                           	
  6379  0ECC                     l4191:	
  6380                           ;PR23.c: 434: RA2 = 1;
  6381  0ECC  1283               	bcf	status, 5	;RP0=0, select bank0
  6382  0ECD  1303               	bcf	status, 6	;RP1=0, select bank0
  6383  0ECE  1505               	bsf	(42/8),(42)&7
  6384                           	line	435
  6385                           	
  6386  0ECF                     l4193:	
  6387                           ;PR23.c: 435: RB5 = 0;
  6388  0ECF  1286               	bcf	(53/8),(53)&7
  6389                           	line	436
  6390                           	
  6391  0ED0                     l4195:	
  6392                           ;PR23.c: 436: RE2 = 0;
  6393  0ED0  1109               	bcf	(74/8),(74)&7
  6394                           	line	437
  6395                           	
  6396  0ED1                     l4197:	
  6397                           ;PR23.c: 437: stop();
  6398  0ED1  120A  158A  226C   	fcall	_stop
              120A  158A         
  6399                           	line	438
  6400                           	
  6401  0ED6                     l724:	
  6402  0ED6  0008               	return
  6403                           	opt stack 0
  6404                           GLOBAL	__end_of_init
  6405  0ED7                     	__end_of_init:
  6406 ;; =============== function _init ends ============
  6407                           
  6408                           	signat	_init,88
  6409                           	global	_send_char
  6410                           psect	text1066,local,class=CODE,delta=2
  6411                           global __ptext1066
  6412  0B04                     __ptext1066:
  6413                           
  6414 ;; *************** function _send_char *****************
  6415 ;; Defined at:
  6416 ;;		line 269 in file "PR23.c"
  6417 ;; Parameters:    Size  Location     Type
  6418 ;;  data            1    wreg     unsigned char 
  6419 ;; Auto vars:     Size  Location     Type
  6420 ;;  data            1    8[BANK0 ] unsigned char 
  6421 ;; Return value:  Size  Location     Type
  6422 ;;		None               void
  6423 ;; Registers used:
  6424 ;;		wreg, status,2, status,0, pclath, cstack
  6425 ;; Tracked objects:
  6426 ;;		On entry : 0/0
  6427 ;;		On exit  : 0/0
  6428 ;;		Unchanged: 0/0
  6429 ;; Data sizes:     COMMON   BANK0   BANK1   BANK3   BANK2
  6430 ;;      Params:         0       0       0       0       0
  6431 ;;      Locals:         0       1       0       0       0
  6432 ;;      Temps:          0       0       0       0       0
  6433 ;;      Totals:         0       1       0       0       0
  6434 ;;Total ram usage:        1 bytes
  6435 ;; Hardware stack levels used:    1
  6436 ;; Hardware stack levels required when called:    3
  6437 ;; This function calls:
  6438 ;;		_delay_ms
  6439 ;;		_e_pulse
  6440 ;; This function is called by:
  6441 ;;		_send_string
  6442 ;;		_dis_num
  6443 ;; This function uses a non-reentrant model
  6444 ;;
  6445                           psect	text1066
  6446                           	file	"PR23.c"
  6447                           	line	269
  6448                           	global	__size_of_send_char
  6449  0019                     	__size_of_send_char	equ	__end_of_send_char-_send_char
  6450                           	
  6451  0B04                     _send_char:	
  6452                           	opt	stack 2
  6453                           ; Regs used in _send_char: [wreg+status,2+status,0+pclath+cstack]
  6454                           ;send_char@data stored from wreg
  6455  0B04  1283               	bcf	status, 5	;RP0=0, select bank0
  6456  0B05  1303               	bcf	status, 6	;RP1=0, select bank0
  6457  0B06  00A8               	movwf	(send_char@data)
  6458                           	line	270
  6459                           	
  6460  0B07                     l4111:	
  6461                           ;PR23.c: 270: RB7 = 1;
  6462  0B07  1786               	bsf	(55/8),(55)&7
  6463                           	line	271
  6464                           	
  6465  0B08                     l4113:	
  6466                           ;PR23.c: 271: PORTD = data;
  6467  0B08  0828               	movf	(send_char@data),w
  6468  0B09  0088               	movwf	(8)	;volatile
  6469                           	line	272
  6470                           	
  6471  0B0A                     l4115:	
  6472                           ;PR23.c: 272: delay_ms(2);
  6473  0B0A  3000               	movlw	0
  6474  0B0B  00A3               	movwf	(?_delay_ms+3)
  6475  0B0C  3000               	movlw	0
  6476  0B0D  00A2               	movwf	(?_delay_ms+2)
  6477  0B0E  3000               	movlw	0
  6478  0B0F  00A1               	movwf	(?_delay_ms+1)
  6479  0B10  3002               	movlw	02h
  6480  0B11  00A0               	movwf	(?_delay_ms)
  6481                           
  6482  0B12  120A  158A  2444   	fcall	_delay_ms
              120A  158A         
  6483                           	line	273
  6484                           	
  6485  0B17                     l4117:	
  6486                           ;PR23.c: 273: e_pulse();
  6487  0B17  120A  158A  231D   	fcall	_e_pulse
              120A  158A         
  6488                           	line	274
  6489                           	
  6490  0B1C                     l681:	
  6491  0B1C  0008               	return
  6492                           	opt stack 0
  6493                           GLOBAL	__end_of_send_char
  6494  0B1D                     	__end_of_send_char:
  6495 ;; =============== function _send_char ends ============
  6496                           
  6497                           	signat	_send_char,4216
  6498                           	global	_send_config
  6499                           psect	text1067,local,class=CODE,delta=2
  6500                           global __ptext1067
  6501  0AEB                     __ptext1067:
  6502                           
  6503 ;; *************** function _send_config *****************
  6504 ;; Defined at:
  6505 ;;		line 261 in file "PR23.c"
  6506 ;; Parameters:    Size  Location     Type
  6507 ;;  data            1    wreg     unsigned char 
  6508 ;; Auto vars:     Size  Location     Type
  6509 ;;  data            1    8[BANK0 ] unsigned char 
  6510 ;; Return value:  Size  Location     Type
  6511 ;;		None               void
  6512 ;; Registers used:
  6513 ;;		wreg, status,2, status,0, pclath, cstack
  6514 ;; Tracked objects:
  6515 ;;		On entry : 0/0
  6516 ;;		On exit  : 0/0
  6517 ;;		Unchanged: 0/0
  6518 ;; Data sizes:     COMMON   BANK0   BANK1   BANK3   BANK2
  6519 ;;      Params:         0       0       0       0       0
  6520 ;;      Locals:         0       1       0       0       0
  6521 ;;      Temps:          0       0       0       0       0
  6522 ;;      Totals:         0       1       0       0       0
  6523 ;;Total ram usage:        1 bytes
  6524 ;; Hardware stack levels used:    1
  6525 ;; Hardware stack levels required when called:    3
  6526 ;; This function calls:
  6527 ;;		_delay_ms
  6528 ;;		_e_pulse
  6529 ;; This function is called by:
  6530 ;;		_lcd_goto
  6531 ;;		_lcd_clr
  6532 ;;		_init
  6533 ;; This function uses a non-reentrant model
  6534 ;;
  6535                           psect	text1067
  6536                           	file	"PR23.c"
  6537                           	line	261
  6538                           	global	__size_of_send_config
  6539  0019                     	__size_of_send_config	equ	__end_of_send_config-_send_config
  6540                           	
  6541  0AEB                     _send_config:	
  6542                           	opt	stack 2
  6543                           ; Regs used in _send_config: [wreg+status,2+status,0+pclath+cstack]
  6544                           ;send_config@data stored from wreg
  6545  0AEB  1283               	bcf	status, 5	;RP0=0, select bank0
  6546  0AEC  1303               	bcf	status, 6	;RP1=0, select bank0
  6547  0AED  00A8               	movwf	(send_config@data)
  6548                           	line	262
  6549                           	
  6550  0AEE                     l4103:	
  6551                           ;PR23.c: 262: RB7 = 0;
  6552  0AEE  1386               	bcf	(55/8),(55)&7
  6553                           	line	263
  6554                           	
  6555  0AEF                     l4105:	
  6556                           ;PR23.c: 263: PORTD = data;
  6557  0AEF  0828               	movf	(send_config@data),w
  6558  0AF0  0088               	movwf	(8)	;volatile
  6559                           	line	264
  6560                           	
  6561  0AF1                     l4107:	
  6562                           ;PR23.c: 264: delay_ms(2);
  6563  0AF1  3000               	movlw	0
  6564  0AF2  00A3               	movwf	(?_delay_ms+3)
  6565  0AF3  3000               	movlw	0
  6566  0AF4  00A2               	movwf	(?_delay_ms+2)
  6567  0AF5  3000               	movlw	0
  6568  0AF6  00A1               	movwf	(?_delay_ms+1)
  6569  0AF7  3002               	movlw	02h
  6570  0AF8  00A0               	movwf	(?_delay_ms)
  6571                           
  6572  0AF9  120A  158A  2444   	fcall	_delay_ms
              120A  158A         
  6573                           	line	265
  6574                           	
  6575  0AFE                     l4109:	
  6576                           ;PR23.c: 265: e_pulse();
  6577  0AFE  120A  158A  231D   	fcall	_e_pulse
              120A  158A         
  6578                           	line	266
  6579                           	
  6580  0B03                     l678:	
  6581  0B03  0008               	return
  6582                           	opt stack 0
  6583                           GLOBAL	__end_of_send_config
  6584  0B04                     	__end_of_send_config:
  6585 ;; =============== function _send_config ends ============
  6586                           
  6587                           	signat	_send_config,4216
  6588                           	global	_e_pulse
  6589                           psect	text1068,local,class=CODE,delta=2
  6590                           global __ptext1068
  6591  0B1D                     __ptext1068:
  6592                           
  6593 ;; *************** function _e_pulse *****************
  6594 ;; Defined at:
  6595 ;;		line 277 in file "PR23.c"
  6596 ;; Parameters:    Size  Location     Type
  6597 ;;		None
  6598 ;; Auto vars:     Size  Location     Type
  6599 ;;		None
  6600 ;; Return value:  Size  Location     Type
  6601 ;;		None               void
  6602 ;; Registers used:
  6603 ;;		wreg, status,2, status,0, pclath, cstack
  6604 ;; Tracked objects:
  6605 ;;		On entry : 0/0
  6606 ;;		On exit  : 0/0
  6607 ;;		Unchanged: 0/0
  6608 ;; Data sizes:     COMMON   BANK0   BANK1   BANK3   BANK2
  6609 ;;      Params:         0       0       0       0       0
  6610 ;;      Locals:         0       0       0       0       0
  6611 ;;      Temps:          0       0       0       0       0
  6612 ;;      Totals:         0       0       0       0       0
  6613 ;;Total ram usage:        0 bytes
  6614 ;; Hardware stack levels used:    1
  6615 ;; Hardware stack levels required when called:    2
  6616 ;; This function calls:
  6617 ;;		_delay_ms
  6618 ;; This function is called by:
  6619 ;;		_send_config
  6620 ;;		_send_char
  6621 ;; This function uses a non-reentrant model
  6622 ;;
  6623                           psect	text1068
  6624                           	file	"PR23.c"
  6625                           	line	277
  6626                           	global	__size_of_e_pulse
  6627  0021                     	__size_of_e_pulse	equ	__end_of_e_pulse-_e_pulse
  6628                           	
  6629  0B1D                     _e_pulse:	
  6630                           	opt	stack 2
  6631                           ; Regs used in _e_pulse: [wreg+status,2+status,0+pclath+cstack]
  6632                           	line	278
  6633                           	
  6634  0B1D                     l4097:	
  6635                           ;PR23.c: 278: RB6 = 1;
  6636  0B1D  1283               	bcf	status, 5	;RP0=0, select bank0
  6637  0B1E  1303               	bcf	status, 6	;RP1=0, select bank0
  6638  0B1F  1706               	bsf	(54/8),(54)&7
  6639                           	line	279
  6640                           	
  6641  0B20                     l4099:	
  6642                           ;PR23.c: 279: delay_ms(1);
  6643  0B20  3000               	movlw	0
  6644  0B21  00A3               	movwf	(?_delay_ms+3)
  6645  0B22  3000               	movlw	0
  6646  0B23  00A2               	movwf	(?_delay_ms+2)
  6647  0B24  3000               	movlw	0
  6648  0B25  00A1               	movwf	(?_delay_ms+1)
  6649  0B26  3001               	movlw	01h
  6650  0B27  00A0               	movwf	(?_delay_ms)
  6651                           
  6652  0B28  120A  158A  2444   	fcall	_delay_ms
              120A  158A         
  6653                           	line	280
  6654                           	
  6655  0B2D                     l4101:	
  6656                           ;PR23.c: 280: RB6 = 0;
  6657  0B2D  1283               	bcf	status, 5	;RP0=0, select bank0
  6658  0B2E  1303               	bcf	status, 6	;RP1=0, select bank0
  6659  0B2F  1306               	bcf	(54/8),(54)&7
  6660                           	line	281
  6661                           ;PR23.c: 281: delay_ms(2);
  6662  0B30  3000               	movlw	0
  6663  0B31  00A3               	movwf	(?_delay_ms+3)
  6664  0B32  3000               	movlw	0
  6665  0B33  00A2               	movwf	(?_delay_ms+2)
  6666  0B34  3000               	movlw	0
  6667  0B35  00A1               	movwf	(?_delay_ms+1)
  6668  0B36  3002               	movlw	02h
  6669  0B37  00A0               	movwf	(?_delay_ms)
  6670                           
  6671  0B38  120A  158A  2444   	fcall	_delay_ms
              120A  158A         
  6672                           	line	282
  6673                           	
  6674  0B3D                     l684:	
  6675  0B3D  0008               	return
  6676                           	opt stack 0
  6677                           GLOBAL	__end_of_e_pulse
  6678  0B3E                     	__end_of_e_pulse:
  6679 ;; =============== function _e_pulse ends ============
  6680                           
  6681                           	signat	_e_pulse,88
  6682                           	global	_beep
  6683                           psect	text1069,local,class=CODE,delta=2
  6684                           global __ptext1069
  6685  0BB0                     __ptext1069:
  6686                           
  6687 ;; *************** function _beep *****************
  6688 ;; Defined at:
  6689 ;;		line 247 in file "PR23.c"
  6690 ;; Parameters:    Size  Location     Type
  6691 ;;  count           1    wreg     unsigned char 
  6692 ;; Auto vars:     Size  Location     Type
  6693 ;;  count           1    8[BANK0 ] unsigned char 
  6694 ;; Return value:  Size  Location     Type
  6695 ;;		None               void
  6696 ;; Registers used:
  6697 ;;		wreg, status,2, status,0, pclath, cstack
  6698 ;; Tracked objects:
  6699 ;;		On entry : 0/0
  6700 ;;		On exit  : 0/0
  6701 ;;		Unchanged: 0/0
  6702 ;; Data sizes:     COMMON   BANK0   BANK1   BANK3   BANK2
  6703 ;;      Params:         0       0       0       0       0
  6704 ;;      Locals:         0       1       0       0       0
  6705 ;;      Temps:          0       0       0       0       0
  6706 ;;      Totals:         0       1       0       0       0
  6707 ;;Total ram usage:        1 bytes
  6708 ;; Hardware stack levels used:    1
  6709 ;; Hardware stack levels required when called:    2
  6710 ;; This function calls:
  6711 ;;		_delay_ms
  6712 ;; This function is called by:
  6713 ;;		_main
  6714 ;; This function uses a non-reentrant model
  6715 ;;
  6716                           psect	text1069
  6717                           	file	"PR23.c"
  6718                           	line	247
  6719                           	global	__size_of_beep
  6720  002F                     	__size_of_beep	equ	__end_of_beep-_beep
  6721                           	
  6722  0BB0                     _beep:	
  6723                           	opt	stack 5
  6724                           ; Regs used in _beep: [wreg+status,2+status,0+pclath+cstack]
  6725                           ;beep@count stored from wreg
  6726  0BB0  1283               	bcf	status, 5	;RP0=0, select bank0
  6727  0BB1  1303               	bcf	status, 6	;RP1=0, select bank0
  6728  0BB2  00A8               	movwf	(beep@count)
  6729                           	line	248
  6730                           	
  6731  0BB3                     l4089:	
  6732                           ;PR23.c: 248: while(count-- > 0)
  6733  0BB3  2BD3               	goto	l4095
  6734                           	
  6735  0BB4                     l673:	
  6736                           	line	250
  6737                           ;PR23.c: 249: {
  6738                           ;PR23.c: 250: RE2 = 1;
  6739  0BB4  1509               	bsf	(74/8),(74)&7
  6740                           	line	251
  6741                           	
  6742  0BB5                     l4091:	
  6743                           ;PR23.c: 251: delay_ms(450);
  6744  0BB5  3000               	movlw	0
  6745  0BB6  00A3               	movwf	(?_delay_ms+3)
  6746  0BB7  3000               	movlw	0
  6747  0BB8  00A2               	movwf	(?_delay_ms+2)
  6748  0BB9  3001               	movlw	01h
  6749  0BBA  00A1               	movwf	(?_delay_ms+1)
  6750  0BBB  30C2               	movlw	0C2h
  6751  0BBC  00A0               	movwf	(?_delay_ms)
  6752                           
  6753  0BBD  120A  158A  2444   	fcall	_delay_ms
              120A  158A         
  6754                           	line	252
  6755                           	
  6756  0BC2                     l4093:	
  6757                           ;PR23.c: 252: RE2 = 0;
  6758  0BC2  1283               	bcf	status, 5	;RP0=0, select bank0
  6759  0BC3  1303               	bcf	status, 6	;RP1=0, select bank0
  6760  0BC4  1109               	bcf	(74/8),(74)&7
  6761                           	line	253
  6762                           ;PR23.c: 253: delay_ms(300);
  6763  0BC5  3000               	movlw	0
  6764  0BC6  00A3               	movwf	(?_delay_ms+3)
  6765  0BC7  3000               	movlw	0
  6766  0BC8  00A2               	movwf	(?_delay_ms+2)
  6767  0BC9  3001               	movlw	01h
  6768  0BCA  00A1               	movwf	(?_delay_ms+1)
  6769  0BCB  302C               	movlw	02Ch
  6770  0BCC  00A0               	movwf	(?_delay_ms)
  6771                           
  6772  0BCD  120A  158A  2444   	fcall	_delay_ms
              120A  158A         
  6773  0BD2  2BD3               	goto	l4095
  6774                           	line	254
  6775                           	
  6776  0BD3                     l672:	
  6777                           	line	248
  6778                           	
  6779  0BD3                     l4095:	
  6780  0BD3  3001               	movlw	low(01h)
  6781  0BD4  1283               	bcf	status, 5	;RP0=0, select bank0
  6782  0BD5  1303               	bcf	status, 6	;RP1=0, select bank0
  6783  0BD6  02A8               	subwf	(beep@count),f
  6784  0BD7  0828               	movf	((beep@count)),w
  6785  0BD8  3AFF               	xorlw	0FFh
  6786  0BD9  1D03               	skipz
  6787  0BDA  2BDC               	goto	u4901
  6788  0BDB  2BDD               	goto	u4900
  6789  0BDC                     u4901:
  6790  0BDC  2BB4               	goto	l673
  6791  0BDD                     u4900:
  6792  0BDD  2BDE               	goto	l675
  6793                           	
  6794  0BDE                     l674:	
  6795                           	line	255
  6796                           	
  6797  0BDE                     l675:	
  6798  0BDE  0008               	return
  6799                           	opt stack 0
  6800                           GLOBAL	__end_of_beep
  6801  0BDF                     	__end_of_beep:
  6802 ;; =============== function _beep ends ============
  6803                           
  6804                           	signat	_beep,4216
  6805                           	global	_read_adc
  6806                           psect	text1070,local,class=CODE,delta=2
  6807                           global __ptext1070
  6808  0F69                     __ptext1070:
  6809                           
  6810 ;; *************** function _read_adc *****************
  6811 ;; Defined at:
  6812 ;;		line 900 in file "PR23.c"
  6813 ;; Parameters:    Size  Location     Type
  6814 ;;  config          1    wreg     unsigned char 
  6815 ;; Auto vars:     Size  Location     Type
  6816 ;;  config          1   18[BANK0 ] unsigned char 
  6817 ;;  result_temp     4   19[BANK0 ] unsigned long 
  6818 ;;  i               2   23[BANK0 ] unsigned short 
  6819 ;; Return value:  Size  Location     Type
  6820 ;;		None               void
  6821 ;; Registers used:
  6822 ;;		wreg, status,2, status,0, btemp+1, pclath, cstack
  6823 ;; Tracked objects:
  6824 ;;		On entry : 0/0
  6825 ;;		On exit  : 0/0
  6826 ;;		Unchanged: 0/0
  6827 ;; Data sizes:     COMMON   BANK0   BANK1   BANK3   BANK2
  6828 ;;      Params:         0       0       0       0       0
  6829 ;;      Locals:         0       7       0       0       0
  6830 ;;      Temps:          0       4       0       0       0
  6831 ;;      Totals:         0      11       0       0       0
  6832 ;;Total ram usage:       11 bytes
  6833 ;; Hardware stack levels used:    1
  6834 ;; Hardware stack levels required when called:    2
  6835 ;; This function calls:
  6836 ;;		_delay
  6837 ;;		___lldiv
  6838 ;; This function is called by:
  6839 ;;		_analog_sen
  6840 ;;		_us_value
  6841 ;; This function uses a non-reentrant model
  6842 ;;
  6843                           psect	text1070
  6844                           	file	"PR23.c"
  6845                           	line	900
  6846                           	global	__size_of_read_adc
  6847  0097                     	__size_of_read_adc	equ	__end_of_read_adc-_read_adc
  6848                           	
  6849  0F69                     _read_adc:	
  6850                           	opt	stack 4
  6851                           ; Regs used in _read_adc: [wreg+status,2+status,0+btemp+1+pclath+cstack]
  6852                           ;read_adc@config stored from wreg
  6853                           	line	902
  6854  0F69  1283               	bcf	status, 5	;RP0=0, select bank0
  6855  0F6A  1303               	bcf	status, 6	;RP1=0, select bank0
  6856  0F6B  00B2               	movwf	(read_adc@config)
  6857                           	
  6858  0F6C                     l4063:	
  6859                           ;PR23.c: 901: unsigned short i;
  6860                           ;PR23.c: 902: unsigned long result_temp=0;
  6861  0F6C  3000               	movlw	0
  6862  0F6D  00B6               	movwf	(read_adc@result_temp+3)
  6863  0F6E  3000               	movlw	0
  6864  0F6F  00B5               	movwf	(read_adc@result_temp+2)
  6865  0F70  3000               	movlw	0
  6866  0F71  00B4               	movwf	(read_adc@result_temp+1)
  6867  0F72  3000               	movlw	0
  6868  0F73  00B3               	movwf	(read_adc@result_temp)
  6869                           
  6870                           	line	904
  6871                           ;PR23.c: 904: ADCON0 = config;
  6872  0F74  0832               	movf	(read_adc@config),w
  6873  0F75  009F               	movwf	(31)	;volatile
  6874                           	line	905
  6875                           	
  6876  0F76                     l4065:	
  6877                           ;PR23.c: 905: delay(10000);
  6878  0F76  3000               	movlw	0
  6879  0F77  00A3               	movwf	(?_delay+3)
  6880  0F78  3000               	movlw	0
  6881  0F79  00A2               	movwf	(?_delay+2)
  6882  0F7A  3027               	movlw	027h
  6883  0F7B  00A1               	movwf	(?_delay+1)
  6884  0F7C  3010               	movlw	010h
  6885  0F7D  00A0               	movwf	(?_delay)
  6886                           
  6887  0F7E  120A  158A  23DF   	fcall	_delay
              120A  158A         
  6888                           	line	906
  6889                           	
  6890  0F83                     l4067:	
  6891                           ;PR23.c: 906: for(i=200;i>0;i-=1)
  6892  0F83  30C8               	movlw	low(0C8h)
  6893  0F84  1283               	bcf	status, 5	;RP0=0, select bank0
  6894  0F85  1303               	bcf	status, 6	;RP1=0, select bank0
  6895  0F86  00B7               	movwf	(read_adc@i)
  6896  0F87  3000               	movlw	high(0C8h)
  6897  0F88  00B8               	movwf	((read_adc@i))+1
  6898                           	
  6899  0F89                     l4069:	
  6900  0F89  0838               	movf	((read_adc@i+1)),w
  6901  0F8A  0437               	iorwf	((read_adc@i)),w
  6902  0F8B  1D03               	skipz
  6903  0F8C  2F8E               	goto	u4851
  6904  0F8D  2F8F               	goto	u4850
  6905  0F8E                     u4851:
  6906  0F8E  2F91               	goto	l876
  6907  0F8F                     u4850:
  6908  0F8F  2FE1               	goto	l4085
  6909                           	
  6910  0F90                     l4071:	
  6911  0F90  2FE1               	goto	l4085
  6912                           	line	907
  6913                           	
  6914  0F91                     l876:	
  6915                           	line	908
  6916                           ;PR23.c: 907: {
  6917                           ;PR23.c: 908: ADGO = 1;
  6918  0F91  151F               	bsf	(250/8),(250)&7
  6919                           	line	909
  6920                           ;PR23.c: 909: while(ADGO==1);
  6921  0F92  2F93               	goto	l878
  6922                           	
  6923  0F93                     l879:	
  6924                           	
  6925  0F93                     l878:	
  6926  0F93  191F               	btfsc	(250/8),(250)&7
  6927  0F94  2F96               	goto	u4861
  6928  0F95  2F97               	goto	u4860
  6929  0F96                     u4861:
  6930  0F96  2F93               	goto	l878
  6931  0F97                     u4860:
  6932  0F97  2F98               	goto	l4073
  6933                           	
  6934  0F98                     l880:	
  6935                           	line	910
  6936                           	
  6937  0F98                     l4073:	
  6938                           ;PR23.c: 910: result=ADRESH;
  6939  0F98  081E               	movf	(30),w	;volatile
  6940  0F99  00AE               	movwf	(??_read_adc+0)+0
  6941  0F9A  01AF               	clrf	(??_read_adc+0)+0+1
  6942  0F9B  082E               	movf	0+(??_read_adc+0)+0,w
  6943  0F9C  00D3               	movwf	(_result)
  6944  0F9D  082F               	movf	1+(??_read_adc+0)+0,w
  6945  0F9E  00D4               	movwf	(_result+1)
  6946                           	line	911
  6947                           	
  6948  0F9F                     l4075:	
  6949                           ;PR23.c: 911: result=result<<8;
  6950  0F9F  0854               	movf	(_result+1),w
  6951  0FA0  00AF               	movwf	(??_read_adc+0)+0+1
  6952  0FA1  0853               	movf	(_result),w
  6953  0FA2  00AE               	movwf	(??_read_adc+0)+0
  6954  0FA3  3008               	movlw	08h
  6955  0FA4  00FF               	movwf	btemp+1
  6956  0FA5                     u4875:
  6957  0FA5  1003               	clrc
  6958  0FA6  0DAE               	rlf	(??_read_adc+0)+0,f
  6959  0FA7  0DAF               	rlf	(??_read_adc+0)+1,f
  6960  0FA8  0BFF               	decfsz	btemp+1,f
  6961  0FA9  2FA5               	goto	u4875
  6962  0FAA  082E               	movf	0+(??_read_adc+0)+0,w
  6963  0FAB  00D3               	movwf	(_result)
  6964  0FAC  082F               	movf	1+(??_read_adc+0)+0,w
  6965  0FAD  00D4               	movwf	(_result+1)
  6966                           	line	912
  6967                           	
  6968  0FAE                     l4077:	
  6969                           ;PR23.c: 912: result=result|ADRESL;
  6970  0FAE  0853               	movf	(_result),w
  6971  0FAF  1683               	bsf	status, 5	;RP0=1, select bank1
  6972  0FB0  1303               	bcf	status, 6	;RP1=0, select bank1
  6973  0FB1  041E               	iorwf	(158)^080h,w	;volatile
  6974  0FB2  1283               	bcf	status, 5	;RP0=0, select bank0
  6975  0FB3  1303               	bcf	status, 6	;RP1=0, select bank0
  6976  0FB4  00D3               	movwf	(_result)
  6977  0FB5  0854               	movf	(_result+1),w
  6978  0FB6  00D4               	movwf	1+(_result)
  6979                           	line	914
  6980                           	
  6981  0FB7                     l4079:	
  6982                           ;PR23.c: 914: result_temp+=result;
  6983  0FB7  0853               	movf	(_result),w
  6984  0FB8  00AE               	movwf	((??_read_adc+0)+0)
  6985  0FB9  0854               	movf	(_result+1),w
  6986  0FBA  00AF               	movwf	((??_read_adc+0)+0+1)
  6987  0FBB  01B0               	clrf	((??_read_adc+0)+0+2)
  6988  0FBC  01B1               	clrf	((??_read_adc+0)+0+3)
  6989  0FBD  082E               	movf	0+(??_read_adc+0)+0,w
  6990  0FBE  07B3               	addwf	(read_adc@result_temp),f
  6991  0FBF  082F               	movf	1+(??_read_adc+0)+0,w
  6992  0FC0  1103               	clrz
  6993  0FC1  1803               	skipnc
  6994  0FC2  3E01               	addlw	1
  6995  0FC3  1903               	skipnz
  6996  0FC4  2FC6               	goto	u4881
  6997  0FC5  07B4               	addwf	(read_adc@result_temp+1),f
  6998  0FC6                     u4881:
  6999  0FC6  0830               	movf	2+(??_read_adc+0)+0,w
  7000  0FC7  1103               	clrz
  7001  0FC8  1803               	skipnc
  7002  0FC9  3E01               	addlw	1
  7003  0FCA  1903               	skipnz
  7004  0FCB  2FCD               	goto	u4882
  7005  0FCC  07B5               	addwf	(read_adc@result_temp+2),f
  7006  0FCD                     u4882:
  7007  0FCD  0831               	movf	3+(??_read_adc+0)+0,w
  7008  0FCE  1103               	clrz
  7009  0FCF  1803               	skipnc
  7010  0FD0  3E01               	addlw	1
  7011  0FD1  1903               	skipnz
  7012  0FD2  2FD4               	goto	u4883
  7013  0FD3  07B6               	addwf	(read_adc@result_temp+3),f
  7014  0FD4                     u4883:
  7015                           
  7016                           	line	906
  7017                           	
  7018  0FD4                     l4081:	
  7019  0FD4  3001               	movlw	low(01h)
  7020  0FD5  02B7               	subwf	(read_adc@i),f
  7021  0FD6  3000               	movlw	high(01h)
  7022  0FD7  1C03               	skipc
  7023  0FD8  03B8               	decf	(read_adc@i+1),f
  7024  0FD9  02B8               	subwf	(read_adc@i+1),f
  7025                           	
  7026  0FDA                     l4083:	
  7027  0FDA  0838               	movf	((read_adc@i+1)),w
  7028  0FDB  0437               	iorwf	((read_adc@i)),w
  7029  0FDC  1D03               	skipz
  7030  0FDD  2FDF               	goto	u4891
  7031  0FDE  2FE0               	goto	u4890
  7032  0FDF                     u4891:
  7033  0FDF  2F91               	goto	l876
  7034  0FE0                     u4890:
  7035  0FE0  2FE1               	goto	l4085
  7036                           	
  7037  0FE1                     l877:	
  7038                           	line	916
  7039                           	
  7040  0FE1                     l4085:	
  7041                           ;PR23.c: 915: }
  7042                           ;PR23.c: 916: result = result_temp/200;
  7043  0FE1  3000               	movlw	0
  7044  0FE2  00A3               	movwf	(?___lldiv+3)
  7045  0FE3  3000               	movlw	0
  7046  0FE4  00A2               	movwf	(?___lldiv+2)
  7047  0FE5  3000               	movlw	0
  7048  0FE6  00A1               	movwf	(?___lldiv+1)
  7049  0FE7  30C8               	movlw	0C8h
  7050  0FE8  00A0               	movwf	(?___lldiv)
  7051                           
  7052  0FE9  0836               	movf	(read_adc@result_temp+3),w
  7053  0FEA  00A7               	movwf	3+(?___lldiv)+04h
  7054  0FEB  0835               	movf	(read_adc@result_temp+2),w
  7055  0FEC  00A6               	movwf	2+(?___lldiv)+04h
  7056  0FED  0834               	movf	(read_adc@result_temp+1),w
  7057  0FEE  00A5               	movwf	1+(?___lldiv)+04h
  7058  0FEF  0833               	movf	(read_adc@result_temp),w
  7059  0FF0  00A4               	movwf	0+(?___lldiv)+04h
  7060                           
  7061  0FF1  120A  158A  24DC   	fcall	___lldiv
              120A  158A         
  7062  0FF6  1283               	bcf	status, 5	;RP0=0, select bank0
  7063  0FF7  1303               	bcf	status, 6	;RP1=0, select bank0
  7064  0FF8  0821               	movf	1+(((0+(?___lldiv)))),w
  7065  0FF9  01D4               	clrf	(_result+1)
  7066  0FFA  07D4               	addwf	(_result+1)
  7067  0FFB  0820               	movf	0+(((0+(?___lldiv)))),w
  7068  0FFC  01D3               	clrf	(_result)
  7069  0FFD  07D3               	addwf	(_result)
  7070                           
  7071                           	line	917
  7072                           	
  7073  0FFE                     l4087:	
  7074                           ;PR23.c: 917: ADON = 0;
  7075  0FFE  101F               	bcf	(248/8),(248)&7
  7076                           	line	918
  7077                           	
  7078  0FFF                     l881:	
  7079  0FFF  0008               	return
  7080                           	opt stack 0
  7081                           GLOBAL	__end_of_read_adc
  7082  1000                     	__end_of_read_adc:
  7083 ;; =============== function _read_adc ends ============
  7084                           
  7085                           	signat	_read_adc,4216
  7086                           	global	_skps
  7087                           psect	text1071,local,class=CODE,delta=2
  7088                           global __ptext1071
  7089  0AB4                     __ptext1071:
  7090                           
  7091 ;; *************** function _skps *****************
  7092 ;; Defined at:
  7093 ;;		line 358 in file "PR23.c"
  7094 ;; Parameters:    Size  Location     Type
  7095 ;;  data            1    wreg     unsigned char 
  7096 ;; Auto vars:     Size  Location     Type
  7097 ;;  data            1    2[BANK0 ] unsigned char 
  7098 ;; Return value:  Size  Location     Type
  7099 ;;                  1    wreg      unsigned char 
  7100 ;; Registers used:
  7101 ;;		wreg, status,2, status,0, pclath, cstack
  7102 ;; Tracked objects:
  7103 ;;		On entry : 0/0
  7104 ;;		On exit  : 0/0
  7105 ;;		Unchanged: 0/0
  7106 ;; Data sizes:     COMMON   BANK0   BANK1   BANK3   BANK2
  7107 ;;      Params:         0       0       0       0       0
  7108 ;;      Locals:         0       1       0       0       0
  7109 ;;      Temps:          0       0       0       0       0
  7110 ;;      Totals:         0       1       0       0       0
  7111 ;;Total ram usage:        1 bytes
  7112 ;; Hardware stack levels used:    1
  7113 ;; Hardware stack levels required when called:    2
  7114 ;; This function calls:
  7115 ;;		_uart_send
  7116 ;;		_uart_rec
  7117 ;; This function is called by:
  7118 ;;		_SKPS_PScon
  7119 ;; This function uses a non-reentrant model
  7120 ;;
  7121                           psect	text1071
  7122                           	file	"PR23.c"
  7123                           	line	358
  7124                           	global	__size_of_skps
  7125  0010                     	__size_of_skps	equ	__end_of_skps-_skps
  7126                           	
  7127  0AB4                     _skps:	
  7128                           	opt	stack 4
  7129                           ; Regs used in _skps: [wreg+status,2+status,0+pclath+cstack]
  7130                           ;skps@data stored from wreg
  7131  0AB4  1283               	bcf	status, 5	;RP0=0, select bank0
  7132  0AB5  1303               	bcf	status, 6	;RP1=0, select bank0
  7133  0AB6  00A2               	movwf	(skps@data)
  7134                           	line	359
  7135                           	
  7136  0AB7                     l4057:	
  7137                           ;PR23.c: 359: uart_send(data);
  7138  0AB7  0822               	movf	(skps@data),w
  7139  0AB8  120A  158A  2299   	fcall	_uart_send
              120A  158A         
  7140                           	line	360
  7141                           	
  7142  0ABD                     l4059:	
  7143                           ;PR23.c: 360: return uart_rec();
  7144  0ABD  120A  158A  22A5   	fcall	_uart_rec
              120A  158A         
  7145  0AC2  2AC3               	goto	l718
  7146                           	
  7147  0AC3                     l4061:	
  7148                           	line	361
  7149                           	
  7150  0AC3                     l718:	
  7151  0AC3  0008               	return
  7152                           	opt stack 0
  7153                           GLOBAL	__end_of_skps
  7154  0AC4                     	__end_of_skps:
  7155 ;; =============== function _skps ends ============
  7156                           
  7157                           	signat	_skps,4217
  7158                           	global	_delay_ms
  7159                           psect	text1072,local,class=CODE,delta=2
  7160                           global __ptext1072
  7161  0C44                     __ptext1072:
  7162                           
  7163 ;; *************** function _delay_ms *****************
  7164 ;; Defined at:
  7165 ;;		line 241 in file "PR23.c"
  7166 ;; Parameters:    Size  Location     Type
  7167 ;;  data            4    0[BANK0 ] unsigned long 
  7168 ;; Auto vars:     Size  Location     Type
  7169 ;;		None
  7170 ;; Return value:  Size  Location     Type
  7171 ;;		None               void
  7172 ;; Registers used:
  7173 ;;		wreg
  7174 ;; Tracked objects:
  7175 ;;		On entry : 0/0
  7176 ;;		On exit  : 0/0
  7177 ;;		Unchanged: 0/0
  7178 ;; Data sizes:     COMMON   BANK0   BANK1   BANK3   BANK2
  7179 ;;      Params:         0       4       0       0       0
  7180 ;;      Locals:         0       0       0       0       0
  7181 ;;      Temps:          0       4       0       0       0
  7182 ;;      Totals:         0       8       0       0       0
  7183 ;;Total ram usage:        8 bytes
  7184 ;; Hardware stack levels used:    1
  7185 ;; Hardware stack levels required when called:    1
  7186 ;; This function calls:
  7187 ;;		Nothing
  7188 ;; This function is called by:
  7189 ;;		_beep
  7190 ;;		_send_config
  7191 ;;		_send_char
  7192 ;;		_e_pulse
  7193 ;;		_lcd_clr
  7194 ;;		_init
  7195 ;; This function uses a non-reentrant model
  7196 ;;
  7197                           psect	text1072
  7198                           	file	"PR23.c"
  7199                           	line	241
  7200                           	global	__size_of_delay_ms
  7201  003A                     	__size_of_delay_ms	equ	__end_of_delay_ms-_delay_ms
  7202                           	
  7203  0C44                     _delay_ms:	
  7204                           	opt	stack 2
  7205                           ; Regs used in _delay_ms: [wreg]
  7206                           	line	242
  7207                           	
  7208  0C44                     l4053:	
  7209                           ;PR23.c: 242: while(data -- > 0)
  7210  0C44  2C4C               	goto	l666
  7211                           	
  7212  0C45                     l667:	
  7213                           	line	243
  7214                           	
  7215  0C45                     l4055:	
  7216                           ;PR23.c: 243: _delay((unsigned long)((1)*(2000000/4000.0)));
  7217                           	opt asmopt_off
  7218  0C45  30A6               movlw	166
  7219  0C46  1283               	bcf	status, 5	;RP0=0, select bank0
  7220  0C47  1303               	bcf	status, 6	;RP1=0, select bank0
  7221  0C48  00A4               movwf	(??_delay_ms+0)+0,f
  7222  0C49                     u5857:
  7223  0C49  0BA4               decfsz	(??_delay_ms+0)+0,f
  7224  0C4A  2C49               	goto	u5857
  7225  0C4B  0064               	clrwdt
  7226                           opt asmopt_on
  7227                           
  7228                           	
  7229  0C4C                     l666:	
  7230                           	line	242
  7231  0C4C  3001               	movlw	01h
  7232  0C4D  1283               	bcf	status, 5	;RP0=0, select bank0
  7233  0C4E  1303               	bcf	status, 6	;RP1=0, select bank0
  7234  0C4F  00A4               	movwf	((??_delay_ms+0)+0)
  7235  0C50  3000               	movlw	0
  7236  0C51  00A5               	movwf	((??_delay_ms+0)+0+1)
  7237  0C52  3000               	movlw	0
  7238  0C53  00A6               	movwf	((??_delay_ms+0)+0+2)
  7239  0C54  3000               	movlw	0
  7240  0C55  00A7               	movwf	((??_delay_ms+0)+0+3)
  7241  0C56  0824               	movf	0+(??_delay_ms+0)+0,w
  7242  0C57  02A0               	subwf	(delay_ms@data),f
  7243  0C58  0825               	movf	1+(??_delay_ms+0)+0,w
  7244  0C59  1C03               	skipc
  7245  0C5A  0F25               	incfsz	1+(??_delay_ms+0)+0,w
  7246  0C5B  2C5D               	goto	u4835
  7247  0C5C  2C5E               	goto	u4836
  7248  0C5D                     u4835:
  7249  0C5D  02A1               	subwf	(delay_ms@data+1),f
  7250  0C5E                     u4836:
  7251  0C5E  0826               	movf	2+(??_delay_ms+0)+0,w
  7252  0C5F  1C03               	skipc
  7253  0C60  0F26               	incfsz	2+(??_delay_ms+0)+0,w
  7254  0C61  2C63               	goto	u4837
  7255  0C62  2C64               	goto	u4838
  7256  0C63                     u4837:
  7257  0C63  02A2               	subwf	(delay_ms@data+2),f
  7258  0C64                     u4838:
  7259  0C64  0827               	movf	3+(??_delay_ms+0)+0,w
  7260  0C65  1C03               	skipc
  7261  0C66  0F27               	incfsz	3+(??_delay_ms+0)+0,w
  7262  0C67  2C69               	goto	u4839
  7263  0C68  2C6A               	goto	u4830
  7264  0C69                     u4839:
  7265  0C69  02A3               	subwf	(delay_ms@data+3),f
  7266  0C6A                     u4830:
  7267                           
  7268  0C6A  30FF               	movlw	0FFh
  7269  0C6B  0623               	xorwf	((delay_ms@data+3)),w
  7270  0C6C  1D03               	skipz
  7271  0C6D  2C78               	goto	u4845
  7272  0C6E  30FF               	movlw	0FFh
  7273  0C6F  0622               	xorwf	((delay_ms@data+2)),w
  7274  0C70  1D03               	skipz
  7275  0C71  2C78               	goto	u4845
  7276  0C72  30FF               	movlw	0FFh
  7277  0C73  0621               	xorwf	((delay_ms@data+1)),w
  7278  0C74  1D03               	skipz
  7279  0C75  2C78               	goto	u4845
  7280  0C76  30FF               	movlw	0FFh
  7281  0C77  0620               	xorwf	((delay_ms@data)),w
  7282  0C78                     u4845:
  7283  0C78  1D03               	skipz
  7284  0C79  2C7B               	goto	u4841
  7285  0C7A  2C7C               	goto	u4840
  7286  0C7B                     u4841:
  7287  0C7B  2C45               	goto	l4055
  7288  0C7C                     u4840:
  7289  0C7C  2C7D               	goto	l669
  7290                           	
  7291  0C7D                     l668:	
  7292                           	line	244
  7293                           	
  7294  0C7D                     l669:	
  7295  0C7D  0008               	return
  7296                           	opt stack 0
  7297                           GLOBAL	__end_of_delay_ms
  7298  0C7E                     	__end_of_delay_ms:
  7299 ;; =============== function _delay_ms ends ============
  7300                           
  7301                           	signat	_delay_ms,4216
  7302                           	global	___lldiv
  7303                           psect	text1073,local,class=CODE,delta=2
  7304                           global __ptext1073
  7305  0CDC                     __ptext1073:
  7306                           
  7307 ;; *************** function ___lldiv *****************
  7308 ;; Defined at:
  7309 ;;		line 5 in file "C:\Program Files (x86)\HI-TECH Software\PICC\9.80\sources\lldiv.c"
  7310 ;; Parameters:    Size  Location     Type
  7311 ;;  divisor         4    0[BANK0 ] unsigned long 
  7312 ;;  dividend        4    4[BANK0 ] unsigned long 
  7313 ;; Auto vars:     Size  Location     Type
  7314 ;;  quotient        4    9[BANK0 ] unsigned long 
  7315 ;;  counter         1   13[BANK0 ] unsigned char 
  7316 ;; Return value:  Size  Location     Type
  7317 ;;                  4    0[BANK0 ] unsigned long 
  7318 ;; Registers used:
  7319 ;;		wreg, status,2, status,0
  7320 ;; Tracked objects:
  7321 ;;		On entry : 0/0
  7322 ;;		On exit  : 0/0
  7323 ;;		Unchanged: 0/0
  7324 ;; Data sizes:     COMMON   BANK0   BANK1   BANK3   BANK2
  7325 ;;      Params:         0       8       0       0       0
  7326 ;;      Locals:         0       5       0       0       0
  7327 ;;      Temps:          0       1       0       0       0
  7328 ;;      Totals:         0      14       0       0       0
  7329 ;;Total ram usage:       14 bytes
  7330 ;; Hardware stack levels used:    1
  7331 ;; Hardware stack levels required when called:    1
  7332 ;; This function calls:
  7333 ;;		Nothing
  7334 ;; This function is called by:
  7335 ;;		_dis_num
  7336 ;;		_read_adc
  7337 ;; This function uses a non-reentrant model
  7338 ;;
  7339                           psect	text1073
  7340                           	file	"C:\Program Files (x86)\HI-TECH Software\PICC\9.80\sources\lldiv.c"
  7341                           	line	5
  7342                           	global	__size_of___lldiv
  7343  0070                     	__size_of___lldiv	equ	__end_of___lldiv-___lldiv
  7344                           	
  7345  0CDC                     ___lldiv:	
  7346                           	opt	stack 4
  7347                           ; Regs used in ___lldiv: [wreg+status,2+status,0]
  7348                           	line	9
  7349                           	
  7350  0CDC                     l4029:	
  7351  0CDC  3000               	movlw	0
  7352  0CDD  1283               	bcf	status, 5	;RP0=0, select bank0
  7353  0CDE  1303               	bcf	status, 6	;RP1=0, select bank0
  7354  0CDF  00AC               	movwf	(___lldiv@quotient+3)
  7355  0CE0  3000               	movlw	0
  7356  0CE1  00AB               	movwf	(___lldiv@quotient+2)
  7357  0CE2  3000               	movlw	0
  7358  0CE3  00AA               	movwf	(___lldiv@quotient+1)
  7359  0CE4  3000               	movlw	0
  7360  0CE5  00A9               	movwf	(___lldiv@quotient)
  7361                           
  7362                           	line	10
  7363  0CE6  0823               	movf	(___lldiv@divisor+3),w
  7364  0CE7  0422               	iorwf	(___lldiv@divisor+2),w
  7365  0CE8  0421               	iorwf	(___lldiv@divisor+1),w
  7366  0CE9  0420               	iorwf	(___lldiv@divisor),w
  7367  0CEA  1903               	skipnz
  7368  0CEB  2CED               	goto	u4761
  7369  0CEC  2CEE               	goto	u4760
  7370  0CED                     u4761:
  7371  0CED  2D42               	goto	l4049
  7372  0CEE                     u4760:
  7373                           	line	11
  7374                           	
  7375  0CEE                     l4031:	
  7376  0CEE  01AD               	clrf	(___lldiv@counter)
  7377  0CEF  1403               	bsf	status,0
  7378  0CF0  0DAD               	rlf	(___lldiv@counter),f
  7379                           	line	12
  7380  0CF1  2D00               	goto	l4035
  7381                           	
  7382  0CF2                     l1079:	
  7383                           	line	13
  7384                           	
  7385  0CF2                     l4033:	
  7386  0CF2  3001               	movlw	01h
  7387  0CF3  00A8               	movwf	(??___lldiv+0)+0
  7388  0CF4                     u4775:
  7389  0CF4  1003               	clrc
  7390  0CF5  0DA0               	rlf	(___lldiv@divisor),f
  7391  0CF6  0DA1               	rlf	(___lldiv@divisor+1),f
  7392  0CF7  0DA2               	rlf	(___lldiv@divisor+2),f
  7393  0CF8  0DA3               	rlf	(___lldiv@divisor+3),f
  7394  0CF9  0BA8               	decfsz	(??___lldiv+0)+0
  7395  0CFA  2CF4               	goto	u4775
  7396                           	line	14
  7397  0CFB  3001               	movlw	(01h)
  7398  0CFC  00A8               	movwf	(??___lldiv+0)+0
  7399  0CFD  0828               	movf	(??___lldiv+0)+0,w
  7400  0CFE  07AD               	addwf	(___lldiv@counter),f
  7401  0CFF  2D00               	goto	l4035
  7402                           	line	15
  7403                           	
  7404  0D00                     l1078:	
  7405                           	line	12
  7406                           	
  7407  0D00                     l4035:	
  7408  0D00  1FA3               	btfss	(___lldiv@divisor+3),(31)&7
  7409  0D01  2D03               	goto	u4781
  7410  0D02  2D04               	goto	u4780
  7411  0D03                     u4781:
  7412  0D03  2CF2               	goto	l4033
  7413  0D04                     u4780:
  7414  0D04  2D06               	goto	l4037
  7415                           	
  7416  0D05                     l1080:	
  7417  0D05  2D06               	goto	l4037
  7418                           	line	16
  7419                           	
  7420  0D06                     l1081:	
  7421                           	line	17
  7422                           	
  7423  0D06                     l4037:	
  7424  0D06  3001               	movlw	01h
  7425  0D07  00A8               	movwf	(??___lldiv+0)+0
  7426  0D08                     u4795:
  7427  0D08  1003               	clrc
  7428  0D09  0DA9               	rlf	(___lldiv@quotient),f
  7429  0D0A  0DAA               	rlf	(___lldiv@quotient+1),f
  7430  0D0B  0DAB               	rlf	(___lldiv@quotient+2),f
  7431  0D0C  0DAC               	rlf	(___lldiv@quotient+3),f
  7432  0D0D  0BA8               	decfsz	(??___lldiv+0)+0
  7433  0D0E  2D08               	goto	u4795
  7434                           	line	18
  7435                           	
  7436  0D0F                     l4039:	
  7437  0D0F  0823               	movf	(___lldiv@divisor+3),w
  7438  0D10  0227               	subwf	(___lldiv@dividend+3),w
  7439  0D11  1D03               	skipz
  7440  0D12  2D1D               	goto	u4805
  7441  0D13  0822               	movf	(___lldiv@divisor+2),w
  7442  0D14  0226               	subwf	(___lldiv@dividend+2),w
  7443  0D15  1D03               	skipz
  7444  0D16  2D1D               	goto	u4805
  7445  0D17  0821               	movf	(___lldiv@divisor+1),w
  7446  0D18  0225               	subwf	(___lldiv@dividend+1),w
  7447  0D19  1D03               	skipz
  7448  0D1A  2D1D               	goto	u4805
  7449  0D1B  0820               	movf	(___lldiv@divisor),w
  7450  0D1C  0224               	subwf	(___lldiv@dividend),w
  7451  0D1D                     u4805:
  7452  0D1D  1C03               	skipc
  7453  0D1E  2D20               	goto	u4801
  7454  0D1F  2D21               	goto	u4800
  7455  0D20                     u4801:
  7456  0D20  2D31               	goto	l4045
  7457  0D21                     u4800:
  7458                           	line	19
  7459                           	
  7460  0D21                     l4041:	
  7461  0D21  0820               	movf	(___lldiv@divisor),w
  7462  0D22  02A4               	subwf	(___lldiv@dividend),f
  7463  0D23  0821               	movf	(___lldiv@divisor+1),w
  7464  0D24  1C03               	skipc
  7465  0D25  0F21               	incfsz	(___lldiv@divisor+1),w
  7466  0D26  02A5               	subwf	(___lldiv@dividend+1),f
  7467  0D27  0822               	movf	(___lldiv@divisor+2),w
  7468  0D28  1C03               	skipc
  7469  0D29  0F22               	incfsz	(___lldiv@divisor+2),w
  7470  0D2A  02A6               	subwf	(___lldiv@dividend+2),f
  7471  0D2B  0823               	movf	(___lldiv@divisor+3),w
  7472  0D2C  1C03               	skipc
  7473  0D2D  0F23               	incfsz	(___lldiv@divisor+3),w
  7474  0D2E  02A7               	subwf	(___lldiv@dividend+3),f
  7475                           	line	20
  7476                           	
  7477  0D2F                     l4043:	
  7478  0D2F  1429               	bsf	(___lldiv@quotient)+(0/8),(0)&7
  7479  0D30  2D31               	goto	l4045
  7480                           	line	21
  7481                           	
  7482  0D31                     l1082:	
  7483                           	line	22
  7484                           	
  7485  0D31                     l4045:	
  7486  0D31  3001               	movlw	01h
  7487  0D32                     u4815:
  7488  0D32  1003               	clrc
  7489  0D33  0CA3               	rrf	(___lldiv@divisor+3),f
  7490  0D34  0CA2               	rrf	(___lldiv@divisor+2),f
  7491  0D35  0CA1               	rrf	(___lldiv@divisor+1),f
  7492  0D36  0CA0               	rrf	(___lldiv@divisor),f
  7493  0D37  3EFF               	addlw	-1
  7494  0D38  1D03               	skipz
  7495  0D39  2D32               	goto	u4815
  7496                           
  7497                           	line	23
  7498                           	
  7499  0D3A                     l4047:	
  7500  0D3A  3001               	movlw	low(01h)
  7501  0D3B  02AD               	subwf	(___lldiv@counter),f
  7502  0D3C  1D03               	btfss	status,2
  7503  0D3D  2D3F               	goto	u4821
  7504  0D3E  2D40               	goto	u4820
  7505  0D3F                     u4821:
  7506  0D3F  2D06               	goto	l4037
  7507  0D40                     u4820:
  7508  0D40  2D42               	goto	l4049
  7509                           	
  7510  0D41                     l1083:	
  7511  0D41  2D42               	goto	l4049
  7512                           	line	24
  7513                           	
  7514  0D42                     l1077:	
  7515                           	line	25
  7516                           	
  7517  0D42                     l4049:	
  7518  0D42  082C               	movf	(___lldiv@quotient+3),w
  7519  0D43  00A3               	movwf	(?___lldiv+3)
  7520  0D44  082B               	movf	(___lldiv@quotient+2),w
  7521  0D45  00A2               	movwf	(?___lldiv+2)
  7522  0D46  082A               	movf	(___lldiv@quotient+1),w
  7523  0D47  00A1               	movwf	(?___lldiv+1)
  7524  0D48  0829               	movf	(___lldiv@quotient),w
  7525  0D49  00A0               	movwf	(?___lldiv)
  7526                           
  7527  0D4A  2D4B               	goto	l1084
  7528                           	
  7529  0D4B                     l4051:	
  7530                           	line	26
  7531                           	
  7532  0D4B                     l1084:	
  7533  0D4B  0008               	return
  7534                           	opt stack 0
  7535                           GLOBAL	__end_of___lldiv
  7536  0D4C                     	__end_of___lldiv:
  7537 ;; =============== function ___lldiv ends ============
  7538                           
  7539                           	signat	___lldiv,8316
  7540                           	global	___llmod
  7541                           psect	text1074,local,class=CODE,delta=2
  7542                           global __ptext1074
  7543  0C7E                     __ptext1074:
  7544                           
  7545 ;; *************** function ___llmod *****************
  7546 ;; Defined at:
  7547 ;;		line 5 in file "C:\Program Files (x86)\HI-TECH Software\PICC\9.80\sources\llmod.c"
  7548 ;; Parameters:    Size  Location     Type
  7549 ;;  divisor         4    0[BANK0 ] unsigned long 
  7550 ;;  dividend        4    4[BANK0 ] unsigned long 
  7551 ;; Auto vars:     Size  Location     Type
  7552 ;;  counter         1    9[BANK0 ] unsigned char 
  7553 ;; Return value:  Size  Location     Type
  7554 ;;                  4    0[BANK0 ] unsigned long 
  7555 ;; Registers used:
  7556 ;;		wreg, status,2, status,0
  7557 ;; Tracked objects:
  7558 ;;		On entry : 0/0
  7559 ;;		On exit  : 0/0
  7560 ;;		Unchanged: 0/0
  7561 ;; Data sizes:     COMMON   BANK0   BANK1   BANK3   BANK2
  7562 ;;      Params:         0       8       0       0       0
  7563 ;;      Locals:         0       1       0       0       0
  7564 ;;      Temps:          0       1       0       0       0
  7565 ;;      Totals:         0      10       0       0       0
  7566 ;;Total ram usage:       10 bytes
  7567 ;; Hardware stack levels used:    1
  7568 ;; Hardware stack levels required when called:    1
  7569 ;; This function calls:
  7570 ;;		Nothing
  7571 ;; This function is called by:
  7572 ;;		_dis_num
  7573 ;; This function uses a non-reentrant model
  7574 ;;
  7575                           psect	text1074
  7576                           	file	"C:\Program Files (x86)\HI-TECH Software\PICC\9.80\sources\llmod.c"
  7577                           	line	5
  7578                           	global	__size_of___llmod
  7579  005E                     	__size_of___llmod	equ	__end_of___llmod-___llmod
  7580                           	
  7581  0C7E                     ___llmod:	
  7582                           	opt	stack 4
  7583                           ; Regs used in ___llmod: [wreg+status,2+status,0]
  7584                           	line	8
  7585                           	
  7586  0C7E                     l4009:	
  7587  0C7E  1283               	bcf	status, 5	;RP0=0, select bank0
  7588  0C7F  1303               	bcf	status, 6	;RP1=0, select bank0
  7589  0C80  0823               	movf	(___llmod@divisor+3),w
  7590  0C81  0422               	iorwf	(___llmod@divisor+2),w
  7591  0C82  0421               	iorwf	(___llmod@divisor+1),w
  7592  0C83  0420               	iorwf	(___llmod@divisor),w
  7593  0C84  1903               	skipnz
  7594  0C85  2C87               	goto	u4701
  7595  0C86  2C88               	goto	u4700
  7596  0C87                     u4701:
  7597  0C87  2CD2               	goto	l4025
  7598  0C88                     u4700:
  7599                           	line	9
  7600                           	
  7601  0C88                     l4011:	
  7602  0C88  01A9               	clrf	(___llmod@counter)
  7603  0C89  1403               	bsf	status,0
  7604  0C8A  0DA9               	rlf	(___llmod@counter),f
  7605                           	line	10
  7606  0C8B  2C9A               	goto	l4015
  7607                           	
  7608  0C8C                     l1060:	
  7609                           	line	11
  7610                           	
  7611  0C8C                     l4013:	
  7612  0C8C  3001               	movlw	01h
  7613  0C8D  00A8               	movwf	(??___llmod+0)+0
  7614  0C8E                     u4715:
  7615  0C8E  1003               	clrc
  7616  0C8F  0DA0               	rlf	(___llmod@divisor),f
  7617  0C90  0DA1               	rlf	(___llmod@divisor+1),f
  7618  0C91  0DA2               	rlf	(___llmod@divisor+2),f
  7619  0C92  0DA3               	rlf	(___llmod@divisor+3),f
  7620  0C93  0BA8               	decfsz	(??___llmod+0)+0
  7621  0C94  2C8E               	goto	u4715
  7622                           	line	12
  7623  0C95  3001               	movlw	(01h)
  7624  0C96  00A8               	movwf	(??___llmod+0)+0
  7625  0C97  0828               	movf	(??___llmod+0)+0,w
  7626  0C98  07A9               	addwf	(___llmod@counter),f
  7627  0C99  2C9A               	goto	l4015
  7628                           	line	13
  7629                           	
  7630  0C9A                     l1059:	
  7631                           	line	10
  7632                           	
  7633  0C9A                     l4015:	
  7634  0C9A  1FA3               	btfss	(___llmod@divisor+3),(31)&7
  7635  0C9B  2C9D               	goto	u4721
  7636  0C9C  2C9E               	goto	u4720
  7637  0C9D                     u4721:
  7638  0C9D  2C8C               	goto	l4013
  7639  0C9E                     u4720:
  7640  0C9E  2CA0               	goto	l4017
  7641                           	
  7642  0C9F                     l1061:	
  7643  0C9F  2CA0               	goto	l4017
  7644                           	line	14
  7645                           	
  7646  0CA0                     l1062:	
  7647                           	line	15
  7648                           	
  7649  0CA0                     l4017:	
  7650  0CA0  0823               	movf	(___llmod@divisor+3),w
  7651  0CA1  0227               	subwf	(___llmod@dividend+3),w
  7652  0CA2  1D03               	skipz
  7653  0CA3  2CAE               	goto	u4735
  7654  0CA4  0822               	movf	(___llmod@divisor+2),w
  7655  0CA5  0226               	subwf	(___llmod@dividend+2),w
  7656  0CA6  1D03               	skipz
  7657  0CA7  2CAE               	goto	u4735
  7658  0CA8  0821               	movf	(___llmod@divisor+1),w
  7659  0CA9  0225               	subwf	(___llmod@dividend+1),w
  7660  0CAA  1D03               	skipz
  7661  0CAB  2CAE               	goto	u4735
  7662  0CAC  0820               	movf	(___llmod@divisor),w
  7663  0CAD  0224               	subwf	(___llmod@dividend),w
  7664  0CAE                     u4735:
  7665  0CAE  1C03               	skipc
  7666  0CAF  2CB1               	goto	u4731
  7667  0CB0  2CB2               	goto	u4730
  7668  0CB1                     u4731:
  7669  0CB1  2CC1               	goto	l4021
  7670  0CB2                     u4730:
  7671                           	line	16
  7672                           	
  7673  0CB2                     l4019:	
  7674  0CB2  0820               	movf	(___llmod@divisor),w
  7675  0CB3  02A4               	subwf	(___llmod@dividend),f
  7676  0CB4  0821               	movf	(___llmod@divisor+1),w
  7677  0CB5  1C03               	skipc
  7678  0CB6  0F21               	incfsz	(___llmod@divisor+1),w
  7679  0CB7  02A5               	subwf	(___llmod@dividend+1),f
  7680  0CB8  0822               	movf	(___llmod@divisor+2),w
  7681  0CB9  1C03               	skipc
  7682  0CBA  0F22               	incfsz	(___llmod@divisor+2),w
  7683  0CBB  02A6               	subwf	(___llmod@dividend+2),f
  7684  0CBC  0823               	movf	(___llmod@divisor+3),w
  7685  0CBD  1C03               	skipc
  7686  0CBE  0F23               	incfsz	(___llmod@divisor+3),w
  7687  0CBF  02A7               	subwf	(___llmod@dividend+3),f
  7688  0CC0  2CC1               	goto	l4021
  7689                           	
  7690  0CC1                     l1063:	
  7691                           	line	17
  7692                           	
  7693  0CC1                     l4021:	
  7694  0CC1  3001               	movlw	01h
  7695  0CC2                     u4745:
  7696  0CC2  1003               	clrc
  7697  0CC3  0CA3               	rrf	(___llmod@divisor+3),f
  7698  0CC4  0CA2               	rrf	(___llmod@divisor+2),f
  7699  0CC5  0CA1               	rrf	(___llmod@divisor+1),f
  7700  0CC6  0CA0               	rrf	(___llmod@divisor),f
  7701  0CC7  3EFF               	addlw	-1
  7702  0CC8  1D03               	skipz
  7703  0CC9  2CC2               	goto	u4745
  7704                           
  7705                           	line	18
  7706                           	
  7707  0CCA                     l4023:	
  7708  0CCA  3001               	movlw	low(01h)
  7709  0CCB  02A9               	subwf	(___llmod@counter),f
  7710  0CCC  1D03               	btfss	status,2
  7711  0CCD  2CCF               	goto	u4751
  7712  0CCE  2CD0               	goto	u4750
  7713  0CCF                     u4751:
  7714  0CCF  2CA0               	goto	l4017
  7715  0CD0                     u4750:
  7716  0CD0  2CD2               	goto	l4025
  7717                           	
  7718  0CD1                     l1064:	
  7719  0CD1  2CD2               	goto	l4025
  7720                           	line	19
  7721                           	
  7722  0CD2                     l1058:	
  7723                           	line	20
  7724                           	
  7725  0CD2                     l4025:	
  7726  0CD2  0827               	movf	(___llmod@dividend+3),w
  7727  0CD3  00A3               	movwf	(?___llmod+3)
  7728  0CD4  0826               	movf	(___llmod@dividend+2),w
  7729  0CD5  00A2               	movwf	(?___llmod+2)
  7730  0CD6  0825               	movf	(___llmod@dividend+1),w
  7731  0CD7  00A1               	movwf	(?___llmod+1)
  7732  0CD8  0824               	movf	(___llmod@dividend),w
  7733  0CD9  00A0               	movwf	(?___llmod)
  7734                           
  7735  0CDA  2CDB               	goto	l1065
  7736                           	
  7737  0CDB                     l4027:	
  7738                           	line	21
  7739                           	
  7740  0CDB                     l1065:	
  7741  0CDB  0008               	return
  7742                           	opt stack 0
  7743                           GLOBAL	__end_of___llmod
  7744  0CDC                     	__end_of___llmod:
  7745 ;; =============== function ___llmod ends ============
  7746                           
  7747                           	signat	___llmod,8316
  7748                           	global	___wmul
  7749                           psect	text1075,local,class=CODE,delta=2
  7750                           global __ptext1075
  7751  0B82                     __ptext1075:
  7752                           
  7753 ;; *************** function ___wmul *****************
  7754 ;; Defined at:
  7755 ;;		line 3 in file "C:\Program Files (x86)\HI-TECH Software\PICC\9.80\sources\wmul.c"
  7756 ;; Parameters:    Size  Location     Type
  7757 ;;  multiplier      2    0[BANK0 ] unsigned int 
  7758 ;;  multiplicand    2    2[BANK0 ] unsigned int 
  7759 ;; Auto vars:     Size  Location     Type
  7760 ;;  product         2    4[BANK0 ] unsigned int 
  7761 ;; Return value:  Size  Location     Type
  7762 ;;                  2    0[BANK0 ] unsigned int 
  7763 ;; Registers used:
  7764 ;;		wreg, status,2, status,0
  7765 ;; Tracked objects:
  7766 ;;		On entry : 0/0
  7767 ;;		On exit  : 0/0
  7768 ;;		Unchanged: 0/0
  7769 ;; Data sizes:     COMMON   BANK0   BANK1   BANK3   BANK2
  7770 ;;      Params:         0       4       0       0       0
  7771 ;;      Locals:         0       2       0       0       0
  7772 ;;      Temps:          0       0       0       0       0
  7773 ;;      Totals:         0       6       0       0       0
  7774 ;;Total ram usage:        6 bytes
  7775 ;; Hardware stack levels used:    1
  7776 ;; Hardware stack levels required when called:    1
  7777 ;; This function calls:
  7778 ;;		Nothing
  7779 ;; This function is called by:
  7780 ;;		_us_value
  7781 ;; This function uses a non-reentrant model
  7782 ;;
  7783                           psect	text1075
  7784                           	file	"C:\Program Files (x86)\HI-TECH Software\PICC\9.80\sources\wmul.c"
  7785                           	line	3
  7786                           	global	__size_of___wmul
  7787  002E                     	__size_of___wmul	equ	__end_of___wmul-___wmul
  7788                           	
  7789  0B82                     ___wmul:	
  7790                           	opt	stack 4
  7791                           ; Regs used in ___wmul: [wreg+status,2+status,0]
  7792                           	line	4
  7793                           	
  7794  0B82                     l3997:	
  7795  0B82  3000               	movlw	low(0)
  7796  0B83  1283               	bcf	status, 5	;RP0=0, select bank0
  7797  0B84  1303               	bcf	status, 6	;RP1=0, select bank0
  7798  0B85  00A4               	movwf	(___wmul@product)
  7799  0B86  3000               	movlw	high(0)
  7800  0B87  00A5               	movwf	((___wmul@product))+1
  7801  0B88  2B89               	goto	l3999
  7802                           	line	6
  7803                           	
  7804  0B89                     l905:	
  7805                           	line	7
  7806                           	
  7807  0B89                     l3999:	
  7808  0B89  1C20               	btfss	(___wmul@multiplier),(0)&7
  7809  0B8A  2B8C               	goto	u4661
  7810  0B8B  2B8D               	goto	u4660
  7811  0B8C                     u4661:
  7812  0B8C  2B93               	goto	l906
  7813  0B8D                     u4660:
  7814                           	line	8
  7815                           	
  7816  0B8D                     l4001:	
  7817  0B8D  0822               	movf	(___wmul@multiplicand),w
  7818  0B8E  07A4               	addwf	(___wmul@product),f
  7819  0B8F  1803               	skipnc
  7820  0B90  0AA5               	incf	(___wmul@product+1),f
  7821  0B91  0823               	movf	(___wmul@multiplicand+1),w
  7822  0B92  07A5               	addwf	(___wmul@product+1),f
  7823                           	
  7824  0B93                     l906:	
  7825                           	line	9
  7826  0B93  3001               	movlw	01h
  7827                           	
  7828  0B94                     u4675:
  7829  0B94  1003               	clrc
  7830  0B95  0DA2               	rlf	(___wmul@multiplicand),f
  7831  0B96  0DA3               	rlf	(___wmul@multiplicand+1),f
  7832  0B97  3EFF               	addlw	-1
  7833  0B98  1D03               	skipz
  7834  0B99  2B94               	goto	u4675
  7835                           	line	10
  7836                           	
  7837  0B9A                     l4003:	
  7838  0B9A  3001               	movlw	01h
  7839                           	
  7840  0B9B                     u4685:
  7841  0B9B  1003               	clrc
  7842  0B9C  0CA1               	rrf	(___wmul@multiplier+1),f
  7843  0B9D  0CA0               	rrf	(___wmul@multiplier),f
  7844  0B9E  3EFF               	addlw	-1
  7845  0B9F  1D03               	skipz
  7846  0BA0  2B9B               	goto	u4685
  7847                           	line	11
  7848  0BA1  0821               	movf	((___wmul@multiplier+1)),w
  7849  0BA2  0420               	iorwf	((___wmul@multiplier)),w
  7850  0BA3  1D03               	skipz
  7851  0BA4  2BA6               	goto	u4691
  7852  0BA5  2BA7               	goto	u4690
  7853  0BA6                     u4691:
  7854  0BA6  2B89               	goto	l3999
  7855  0BA7                     u4690:
  7856  0BA7  2BA8               	goto	l4005
  7857                           	
  7858  0BA8                     l907:	
  7859                           	line	12
  7860                           	
  7861  0BA8                     l4005:	
  7862  0BA8  0825               	movf	(___wmul@product+1),w
  7863  0BA9  01A1               	clrf	(?___wmul+1)
  7864  0BAA  07A1               	addwf	(?___wmul+1)
  7865  0BAB  0824               	movf	(___wmul@product),w
  7866  0BAC  01A0               	clrf	(?___wmul)
  7867  0BAD  07A0               	addwf	(?___wmul)
  7868                           
  7869  0BAE  2BAF               	goto	l908
  7870                           	
  7871  0BAF                     l4007:	
  7872                           	line	13
  7873                           	
  7874  0BAF                     l908:	
  7875  0BAF  0008               	return
  7876                           	opt stack 0
  7877                           GLOBAL	__end_of___wmul
  7878  0BB0                     	__end_of___wmul:
  7879 ;; =============== function ___wmul ends ============
  7880                           
  7881                           	signat	___wmul,8314
  7882                           	global	_left
  7883                           psect	text1076,local,class=CODE,delta=2
  7884                           global __ptext1076
  7885  0A88                     __ptext1076:
  7886                           
  7887 ;; *************** function _left *****************
  7888 ;; Defined at:
  7889 ;;		line 942 in file "PR23.c"
  7890 ;; Parameters:    Size  Location     Type
  7891 ;;		None
  7892 ;; Auto vars:     Size  Location     Type
  7893 ;;		None
  7894 ;; Return value:  Size  Location     Type
  7895 ;;		None               void
  7896 ;; Registers used:
  7897 ;;		None
  7898 ;; Tracked objects:
  7899 ;;		On entry : 0/0
  7900 ;;		On exit  : 0/0
  7901 ;;		Unchanged: 0/0
  7902 ;; Data sizes:     COMMON   BANK0   BANK1   BANK3   BANK2
  7903 ;;      Params:         0       0       0       0       0
  7904 ;;      Locals:         0       0       0       0       0
  7905 ;;      Temps:          0       0       0       0       0
  7906 ;;      Totals:         0       0       0       0       0
  7907 ;;Total ram usage:        0 bytes
  7908 ;; Hardware stack levels used:    1
  7909 ;; Hardware stack levels required when called:    1
  7910 ;; This function calls:
  7911 ;;		Nothing
  7912 ;; This function is called by:
  7913 ;;		_wireless_xbee
  7914 ;;		_SKPS_PScon
  7915 ;; This function uses a non-reentrant model
  7916 ;;
  7917                           psect	text1076
  7918                           	file	"PR23.c"
  7919                           	line	942
  7920                           	global	__size_of_left
  7921  0007                     	__size_of_left	equ	__end_of_left-_left
  7922                           	
  7923  0A88                     _left:	
  7924                           	opt	stack 5
  7925                           ; Regs used in _left: []
  7926                           	line	943
  7927                           	
  7928  0A88                     l3995:	
  7929                           ;PR23.c: 943: RC4 = 1;
  7930  0A88  1283               	bcf	status, 5	;RP0=0, select bank0
  7931  0A89  1303               	bcf	status, 6	;RP1=0, select bank0
  7932  0A8A  1607               	bsf	(60/8),(60)&7
  7933                           	line	944
  7934                           ;PR23.c: 944: RC5 = 0;
  7935  0A8B  1287               	bcf	(61/8),(61)&7
  7936                           	line	945
  7937                           ;PR23.c: 945: RC0 = 0;
  7938  0A8C  1007               	bcf	(56/8),(56)&7
  7939                           	line	946
  7940                           ;PR23.c: 946: RC3 = 1;
  7941  0A8D  1587               	bsf	(59/8),(59)&7
  7942                           	line	947
  7943                           	
  7944  0A8E                     l890:	
  7945  0A8E  0008               	return
  7946                           	opt stack 0
  7947                           GLOBAL	__end_of_left
  7948  0A8F                     	__end_of_left:
  7949 ;; =============== function _left ends ============
  7950                           
  7951                           	signat	_left,88
  7952                           	global	_right
  7953                           psect	text1077,local,class=CODE,delta=2
  7954                           global __ptext1077
  7955  0A81                     __ptext1077:
  7956                           
  7957 ;; *************** function _right *****************
  7958 ;; Defined at:
  7959 ;;		line 949 in file "PR23.c"
  7960 ;; Parameters:    Size  Location     Type
  7961 ;;		None
  7962 ;; Auto vars:     Size  Location     Type
  7963 ;;		None
  7964 ;; Return value:  Size  Location     Type
  7965 ;;		None               void
  7966 ;; Registers used:
  7967 ;;		None
  7968 ;; Tracked objects:
  7969 ;;		On entry : 0/0
  7970 ;;		On exit  : 0/0
  7971 ;;		Unchanged: 0/0
  7972 ;; Data sizes:     COMMON   BANK0   BANK1   BANK3   BANK2
  7973 ;;      Params:         0       0       0       0       0
  7974 ;;      Locals:         0       0       0       0       0
  7975 ;;      Temps:          0       0       0       0       0
  7976 ;;      Totals:         0       0       0       0       0
  7977 ;;Total ram usage:        0 bytes
  7978 ;; Hardware stack levels used:    1
  7979 ;; Hardware stack levels required when called:    1
  7980 ;; This function calls:
  7981 ;;		Nothing
  7982 ;; This function is called by:
  7983 ;;		_wireless_xbee
  7984 ;;		_SKPS_PScon
  7985 ;; This function uses a non-reentrant model
  7986 ;;
  7987                           psect	text1077
  7988                           	file	"PR23.c"
  7989                           	line	949
  7990                           	global	__size_of_right
  7991  0007                     	__size_of_right	equ	__end_of_right-_right
  7992                           	
  7993  0A81                     _right:	
  7994                           	opt	stack 5
  7995                           ; Regs used in _right: []
  7996                           	line	950
  7997                           	
  7998  0A81                     l3993:	
  7999                           ;PR23.c: 950: RC4 = 0;
  8000  0A81  1283               	bcf	status, 5	;RP0=0, select bank0
  8001  0A82  1303               	bcf	status, 6	;RP1=0, select bank0
  8002  0A83  1207               	bcf	(60/8),(60)&7
  8003                           	line	951
  8004                           ;PR23.c: 951: RC5 = 1;
  8005  0A84  1687               	bsf	(61/8),(61)&7
  8006                           	line	952
  8007                           ;PR23.c: 952: RC0 = 1;
  8008  0A85  1407               	bsf	(56/8),(56)&7
  8009                           	line	953
  8010                           ;PR23.c: 953: RC3 = 0;
  8011  0A86  1187               	bcf	(59/8),(59)&7
  8012                           	line	954
  8013                           	
  8014  0A87                     l893:	
  8015  0A87  0008               	return
  8016                           	opt stack 0
  8017                           GLOBAL	__end_of_right
  8018  0A88                     	__end_of_right:
  8019 ;; =============== function _right ends ============
  8020                           
  8021                           	signat	_right,88
  8022                           	global	_backward
  8023                           psect	text1078,local,class=CODE,delta=2
  8024                           global __ptext1078
  8025  0A7A                     __ptext1078:
  8026                           
  8027 ;; *************** function _backward *****************
  8028 ;; Defined at:
  8029 ;;		line 934 in file "PR23.c"
  8030 ;; Parameters:    Size  Location     Type
  8031 ;;		None
  8032 ;; Auto vars:     Size  Location     Type
  8033 ;;		None
  8034 ;; Return value:  Size  Location     Type
  8035 ;;		None               void
  8036 ;; Registers used:
  8037 ;;		None
  8038 ;; Tracked objects:
  8039 ;;		On entry : 0/0
  8040 ;;		On exit  : 0/0
  8041 ;;		Unchanged: 0/0
  8042 ;; Data sizes:     COMMON   BANK0   BANK1   BANK3   BANK2
  8043 ;;      Params:         0       0       0       0       0
  8044 ;;      Locals:         0       0       0       0       0
  8045 ;;      Temps:          0       0       0       0       0
  8046 ;;      Totals:         0       0       0       0       0
  8047 ;;Total ram usage:        0 bytes
  8048 ;; Hardware stack levels used:    1
  8049 ;; Hardware stack levels required when called:    1
  8050 ;; This function calls:
  8051 ;;		Nothing
  8052 ;; This function is called by:
  8053 ;;		_ultrasonic
  8054 ;;		_analog_sen
  8055 ;;		_wireless_xbee
  8056 ;;		_SKPS_PScon
  8057 ;; This function uses a non-reentrant model
  8058 ;;
  8059                           psect	text1078
  8060                           	file	"PR23.c"
  8061                           	line	934
  8062                           	global	__size_of_backward
  8063  0007                     	__size_of_backward	equ	__end_of_backward-_backward
  8064                           	
  8065  0A7A                     _backward:	
  8066                           	opt	stack 5
  8067                           ; Regs used in _backward: []
  8068                           	line	935
  8069                           	
  8070  0A7A                     l3991:	
  8071                           ;PR23.c: 935: RC0 = 1;
  8072  0A7A  1283               	bcf	status, 5	;RP0=0, select bank0
  8073  0A7B  1303               	bcf	status, 6	;RP1=0, select bank0
  8074  0A7C  1407               	bsf	(56/8),(56)&7
  8075                           	line	936
  8076                           ;PR23.c: 936: RC3 = 0;
  8077  0A7D  1187               	bcf	(59/8),(59)&7
  8078                           	line	937
  8079                           ;PR23.c: 937: RC4 = 1;
  8080  0A7E  1607               	bsf	(60/8),(60)&7
  8081                           	line	938
  8082                           ;PR23.c: 938: RC5 = 0;
  8083  0A7F  1287               	bcf	(61/8),(61)&7
  8084                           	line	939
  8085                           	
  8086  0A80                     l887:	
  8087  0A80  0008               	return
  8088                           	opt stack 0
  8089                           GLOBAL	__end_of_backward
  8090  0A81                     	__end_of_backward:
  8091 ;; =============== function _backward ends ============
  8092                           
  8093                           	signat	_backward,88
  8094                           	global	_forward
  8095                           psect	text1079,local,class=CODE,delta=2
  8096                           global __ptext1079
  8097  0A73                     __ptext1079:
  8098                           
  8099 ;; *************** function _forward *****************
  8100 ;; Defined at:
  8101 ;;		line 926 in file "PR23.c"
  8102 ;; Parameters:    Size  Location     Type
  8103 ;;		None
  8104 ;; Auto vars:     Size  Location     Type
  8105 ;;		None
  8106 ;; Return value:  Size  Location     Type
  8107 ;;		None               void
  8108 ;; Registers used:
  8109 ;;		None
  8110 ;; Tracked objects:
  8111 ;;		On entry : 0/0
  8112 ;;		On exit  : 0/0
  8113 ;;		Unchanged: 0/0
  8114 ;; Data sizes:     COMMON   BANK0   BANK1   BANK3   BANK2
  8115 ;;      Params:         0       0       0       0       0
  8116 ;;      Locals:         0       0       0       0       0
  8117 ;;      Temps:          0       0       0       0       0
  8118 ;;      Totals:         0       0       0       0       0
  8119 ;;Total ram usage:        0 bytes
  8120 ;; Hardware stack levels used:    1
  8121 ;; Hardware stack levels required when called:    1
  8122 ;; This function calls:
  8123 ;;		Nothing
  8124 ;; This function is called by:
  8125 ;;		_line_follow
  8126 ;;		_ultrasonic
  8127 ;;		_analog_sen
  8128 ;;		_wireless_xbee
  8129 ;;		_SKPS_PScon
  8130 ;; This function uses a non-reentrant model
  8131 ;;
  8132                           psect	text1079
  8133                           	file	"PR23.c"
  8134                           	line	926
  8135                           	global	__size_of_forward
  8136  0007                     	__size_of_forward	equ	__end_of_forward-_forward
  8137                           	
  8138  0A73                     _forward:	
  8139                           	opt	stack 5
  8140                           ; Regs used in _forward: []
  8141                           	line	927
  8142                           	
  8143  0A73                     l3989:	
  8144                           ;PR23.c: 927: RC0 = 0;
  8145  0A73  1283               	bcf	status, 5	;RP0=0, select bank0
  8146  0A74  1303               	bcf	status, 6	;RP1=0, select bank0
  8147  0A75  1007               	bcf	(56/8),(56)&7
  8148                           	line	928
  8149                           ;PR23.c: 928: RC3 = 1;
  8150  0A76  1587               	bsf	(59/8),(59)&7
  8151                           	line	929
  8152                           ;PR23.c: 929: RC4 = 0;
  8153  0A77  1207               	bcf	(60/8),(60)&7
  8154                           	line	930
  8155                           ;PR23.c: 930: RC5 = 1;
  8156  0A78  1687               	bsf	(61/8),(61)&7
  8157                           	line	931
  8158                           	
  8159  0A79                     l884:	
  8160  0A79  0008               	return
  8161                           	opt stack 0
  8162                           GLOBAL	__end_of_forward
  8163  0A7A                     	__end_of_forward:
  8164 ;; =============== function _forward ends ============
  8165                           
  8166                           	signat	_forward,88
  8167                           	global	_stop
  8168                           psect	text1080,local,class=CODE,delta=2
  8169                           global __ptext1080
  8170  0A6C                     __ptext1080:
  8171                           
  8172 ;; *************** function _stop *****************
  8173 ;; Defined at:
  8174 ;;		line 957 in file "PR23.c"
  8175 ;; Parameters:    Size  Location     Type
  8176 ;;		None
  8177 ;; Auto vars:     Size  Location     Type
  8178 ;;		None
  8179 ;; Return value:  Size  Location     Type
  8180 ;;		None               void
  8181 ;; Registers used:
  8182 ;;		None
  8183 ;; Tracked objects:
  8184 ;;		On entry : 0/0
  8185 ;;		On exit  : 0/0
  8186 ;;		Unchanged: 0/0
  8187 ;; Data sizes:     COMMON   BANK0   BANK1   BANK3   BANK2
  8188 ;;      Params:         0       0       0       0       0
  8189 ;;      Locals:         0       0       0       0       0
  8190 ;;      Temps:          0       0       0       0       0
  8191 ;;      Totals:         0       0       0       0       0
  8192 ;;Total ram usage:        0 bytes
  8193 ;; Hardware stack levels used:    1
  8194 ;; Hardware stack levels required when called:    1
  8195 ;; This function calls:
  8196 ;;		Nothing
  8197 ;; This function is called by:
  8198 ;;		_init
  8199 ;;		_ultrasonic
  8200 ;;		_analog_sen
  8201 ;;		_wireless_xbee
  8202 ;;		_SKPS_PScon
  8203 ;; This function uses a non-reentrant model
  8204 ;;
  8205                           psect	text1080
  8206                           	file	"PR23.c"
  8207                           	line	957
  8208                           	global	__size_of_stop
  8209  0007                     	__size_of_stop	equ	__end_of_stop-_stop
  8210                           	
  8211  0A6C                     _stop:	
  8212                           	opt	stack 5
  8213                           ; Regs used in _stop: []
  8214                           	line	958
  8215                           	
  8216  0A6C                     l3987:	
  8217                           ;PR23.c: 958: RC4 = 1;
  8218  0A6C  1283               	bcf	status, 5	;RP0=0, select bank0
  8219  0A6D  1303               	bcf	status, 6	;RP1=0, select bank0
  8220  0A6E  1607               	bsf	(60/8),(60)&7
  8221                           	line	959
  8222                           ;PR23.c: 959: RC5 = 1;
  8223  0A6F  1687               	bsf	(61/8),(61)&7
  8224                           	line	960
  8225                           ;PR23.c: 960: RC0 = 1;
  8226  0A70  1407               	bsf	(56/8),(56)&7
  8227                           	line	961
  8228                           ;PR23.c: 961: RC3 = 1;
  8229  0A71  1587               	bsf	(59/8),(59)&7
  8230                           	line	962
  8231                           	
  8232  0A72                     l896:	
  8233  0A72  0008               	return
  8234                           	opt stack 0
  8235                           GLOBAL	__end_of_stop
  8236  0A73                     	__end_of_stop:
  8237 ;; =============== function _stop ends ============
  8238                           
  8239                           	signat	_stop,88
  8240                           	global	_uart_rec
  8241                           psect	text1081,local,class=CODE,delta=2
  8242                           global __ptext1081
  8243  0AA5                     __ptext1081:
  8244                           
  8245 ;; *************** function _uart_rec *****************
  8246 ;; Defined at:
  8247 ;;		line 347 in file "PR23.c"
  8248 ;; Parameters:    Size  Location     Type
  8249 ;;		None
  8250 ;; Auto vars:     Size  Location     Type
  8251 ;;  temp            1    1[BANK0 ] unsigned char 
  8252 ;; Return value:  Size  Location     Type
  8253 ;;                  1    wreg      unsigned char 
  8254 ;; Registers used:
  8255 ;;		wreg
  8256 ;; Tracked objects:
  8257 ;;		On entry : 0/0
  8258 ;;		On exit  : 0/0
  8259 ;;		Unchanged: 0/0
  8260 ;; Data sizes:     COMMON   BANK0   BANK1   BANK3   BANK2
  8261 ;;      Params:         0       0       0       0       0
  8262 ;;      Locals:         0       1       0       0       0
  8263 ;;      Temps:          0       1       0       0       0
  8264 ;;      Totals:         0       2       0       0       0
  8265 ;;Total ram usage:        2 bytes
  8266 ;; Hardware stack levels used:    1
  8267 ;; Hardware stack levels required when called:    1
  8268 ;; This function calls:
  8269 ;;		Nothing
  8270 ;; This function is called by:
  8271 ;;		_skps
  8272 ;; This function uses a non-reentrant model
  8273 ;;
  8274                           psect	text1081
  8275                           	file	"PR23.c"
  8276                           	line	347
  8277                           	global	__size_of_uart_rec
  8278  000F                     	__size_of_uart_rec	equ	__end_of_uart_rec-_uart_rec
  8279                           	
  8280  0AA5                     _uart_rec:	
  8281                           	opt	stack 4
  8282                           ; Regs used in _uart_rec: [wreg]
  8283                           	line	349
  8284                           	
  8285  0AA5                     l3979:	
  8286                           ;PR23.c: 348: unsigned char temp;
  8287                           ;PR23.c: 349: while(RCIF==0);
  8288  0AA5  2AA6               	goto	l712
  8289                           	
  8290  0AA6                     l713:	
  8291                           	
  8292  0AA6                     l712:	
  8293  0AA6  1283               	bcf	status, 5	;RP0=0, select bank0
  8294  0AA7  1303               	bcf	status, 6	;RP1=0, select bank0
  8295  0AA8  1E8C               	btfss	(101/8),(101)&7
  8296  0AA9  2AAB               	goto	u4651
  8297  0AAA  2AAC               	goto	u4650
  8298  0AAB                     u4651:
  8299  0AAB  2AA6               	goto	l712
  8300  0AAC                     u4650:
  8301  0AAC  2AAD               	goto	l3981
  8302                           	
  8303  0AAD                     l714:	
  8304                           	line	350
  8305                           	
  8306  0AAD                     l3981:	
  8307                           ;PR23.c: 350: temp=RCREG;
  8308  0AAD  081A               	movf	(26),w	;volatile
  8309  0AAE  00A0               	movwf	(??_uart_rec+0)+0
  8310  0AAF  0820               	movf	(??_uart_rec+0)+0,w
  8311  0AB0  00A1               	movwf	(uart_rec@temp)
  8312                           	line	351
  8313                           ;PR23.c: 351: return temp;
  8314  0AB1  0821               	movf	(uart_rec@temp),w
  8315  0AB2  2AB3               	goto	l715
  8316                           	
  8317  0AB3                     l3983:	
  8318                           	line	352
  8319                           	
  8320  0AB3                     l715:	
  8321  0AB3  0008               	return
  8322                           	opt stack 0
  8323                           GLOBAL	__end_of_uart_rec
  8324  0AB4                     	__end_of_uart_rec:
  8325 ;; =============== function _uart_rec ends ============
  8326                           
  8327                           	signat	_uart_rec,89
  8328                           	global	_uart_send
  8329                           psect	text1082,local,class=CODE,delta=2
  8330                           global __ptext1082
  8331  0A99                     __ptext1082:
  8332                           
  8333 ;; *************** function _uart_send *****************
  8334 ;; Defined at:
  8335 ;;		line 341 in file "PR23.c"
  8336 ;; Parameters:    Size  Location     Type
  8337 ;;  data            1    wreg     unsigned char 
  8338 ;; Auto vars:     Size  Location     Type
  8339 ;;  data            1    0[BANK0 ] unsigned char 
  8340 ;; Return value:  Size  Location     Type
  8341 ;;		None               void
  8342 ;; Registers used:
  8343 ;;		wreg
  8344 ;; Tracked objects:
  8345 ;;		On entry : 0/0
  8346 ;;		On exit  : 0/0
  8347 ;;		Unchanged: 0/0
  8348 ;; Data sizes:     COMMON   BANK0   BANK1   BANK3   BANK2
  8349 ;;      Params:         0       0       0       0       0
  8350 ;;      Locals:         0       1       0       0       0
  8351 ;;      Temps:          0       0       0       0       0
  8352 ;;      Totals:         0       1       0       0       0
  8353 ;;Total ram usage:        1 bytes
  8354 ;; Hardware stack levels used:    1
  8355 ;; Hardware stack levels required when called:    1
  8356 ;; This function calls:
  8357 ;;		Nothing
  8358 ;; This function is called by:
  8359 ;;		_skps
  8360 ;;		_skps_vibrate
  8361 ;; This function uses a non-reentrant model
  8362 ;;
  8363                           psect	text1082
  8364                           	file	"PR23.c"
  8365                           	line	341
  8366                           	global	__size_of_uart_send
  8367  000C                     	__size_of_uart_send	equ	__end_of_uart_send-_uart_send
  8368                           	
  8369  0A99                     _uart_send:	
  8370                           	opt	stack 4
  8371                           ; Regs used in _uart_send: [wreg]
  8372                           ;uart_send@data stored from wreg
  8373  0A99  1283               	bcf	status, 5	;RP0=0, select bank0
  8374  0A9A  1303               	bcf	status, 6	;RP1=0, select bank0
  8375  0A9B  00A0               	movwf	(uart_send@data)
  8376                           	line	342
  8377                           	
  8378  0A9C                     l3975:	
  8379                           ;PR23.c: 342: while(TXIF==0);
  8380  0A9C  2A9D               	goto	l706
  8381                           	
  8382  0A9D                     l707:	
  8383                           	
  8384  0A9D                     l706:	
  8385  0A9D  1E0C               	btfss	(100/8),(100)&7
  8386  0A9E  2AA0               	goto	u4641
  8387  0A9F  2AA1               	goto	u4640
  8388  0AA0                     u4641:
  8389  0AA0  2A9D               	goto	l706
  8390  0AA1                     u4640:
  8391  0AA1  2AA2               	goto	l3977
  8392                           	
  8393  0AA2                     l708:	
  8394                           	line	343
  8395                           	
  8396  0AA2                     l3977:	
  8397                           ;PR23.c: 343: TXREG=data;
  8398  0AA2  0820               	movf	(uart_send@data),w
  8399  0AA3  0099               	movwf	(25)	;volatile
  8400                           	line	344
  8401                           	
  8402  0AA4                     l709:	
  8403  0AA4  0008               	return
  8404                           	opt stack 0
  8405                           GLOBAL	__end_of_uart_send
  8406  0AA5                     	__end_of_uart_send:
  8407 ;; =============== function _uart_send ends ============
  8408                           
  8409                           	signat	_uart_send,4216
  8410                           	global	_delay
  8411                           psect	text1083,local,class=CODE,delta=2
  8412                           global __ptext1083
  8413  0BDF                     __ptext1083:
  8414                           
  8415 ;; *************** function _delay *****************
  8416 ;; Defined at:
  8417 ;;		line 235 in file "PR23.c"
  8418 ;; Parameters:    Size  Location     Type
  8419 ;;  data            4    0[BANK0 ] unsigned long 
  8420 ;; Auto vars:     Size  Location     Type
  8421 ;;		None
  8422 ;; Return value:  Size  Location     Type
  8423 ;;		None               void
  8424 ;; Registers used:
  8425 ;;		wreg
  8426 ;; Tracked objects:
  8427 ;;		On entry : 0/0
  8428 ;;		On exit  : 0/0
  8429 ;;		Unchanged: 0/0
  8430 ;; Data sizes:     COMMON   BANK0   BANK1   BANK3   BANK2
  8431 ;;      Params:         0       4       0       0       0
  8432 ;;      Locals:         0       0       0       0       0
  8433 ;;      Temps:          0       4       0       0       0
  8434 ;;      Totals:         0       8       0       0       0
  8435 ;;Total ram usage:        8 bytes
  8436 ;; Hardware stack levels used:    1
  8437 ;; Hardware stack levels required when called:    1
  8438 ;; This function calls:
  8439 ;;		Nothing
  8440 ;; This function is called by:
  8441 ;;		_read_adc
  8442 ;; This function uses a non-reentrant model
  8443 ;;
  8444                           psect	text1083
  8445                           	file	"PR23.c"
  8446                           	line	235
  8447                           	global	__size_of_delay
  8448  0032                     	__size_of_delay	equ	__end_of_delay-_delay
  8449                           	
  8450  0BDF                     _delay:	
  8451                           	opt	stack 4
  8452                           ; Regs used in _delay: [wreg]
  8453                           	line	236
  8454                           	
  8455  0BDF                     l3969:	
  8456                           ;PR23.c: 236: for( ;data>0;data-=1);
  8457  0BDF  1283               	bcf	status, 5	;RP0=0, select bank0
  8458  0BE0  1303               	bcf	status, 6	;RP1=0, select bank0
  8459  0BE1  0823               	movf	(delay@data+3),w
  8460  0BE2  0422               	iorwf	(delay@data+2),w
  8461  0BE3  0421               	iorwf	(delay@data+1),w
  8462  0BE4  0420               	iorwf	(delay@data),w
  8463  0BE5  1D03               	skipz
  8464  0BE6  2BE8               	goto	u4611
  8465  0BE7  2BE9               	goto	u4610
  8466  0BE8                     u4611:
  8467  0BE8  2BEB               	goto	l3973
  8468  0BE9                     u4610:
  8469  0BE9  2C10               	goto	l663
  8470                           	
  8471  0BEA                     l3971:	
  8472  0BEA  2C10               	goto	l663
  8473                           	
  8474  0BEB                     l661:	
  8475                           	
  8476  0BEB                     l3973:	
  8477  0BEB  3001               	movlw	01h
  8478  0BEC  00A4               	movwf	((??_delay+0)+0)
  8479  0BED  3000               	movlw	0
  8480  0BEE  00A5               	movwf	((??_delay+0)+0+1)
  8481  0BEF  3000               	movlw	0
  8482  0BF0  00A6               	movwf	((??_delay+0)+0+2)
  8483  0BF1  3000               	movlw	0
  8484  0BF2  00A7               	movwf	((??_delay+0)+0+3)
  8485  0BF3  0824               	movf	0+(??_delay+0)+0,w
  8486  0BF4  02A0               	subwf	(delay@data),f
  8487  0BF5  0825               	movf	1+(??_delay+0)+0,w
  8488  0BF6  1C03               	skipc
  8489  0BF7  0F25               	incfsz	1+(??_delay+0)+0,w
  8490  0BF8  2BFA               	goto	u4625
  8491  0BF9  2BFB               	goto	u4626
  8492  0BFA                     u4625:
  8493  0BFA  02A1               	subwf	(delay@data+1),f
  8494  0BFB                     u4626:
  8495  0BFB  0826               	movf	2+(??_delay+0)+0,w
  8496  0BFC  1C03               	skipc
  8497  0BFD  0F26               	incfsz	2+(??_delay+0)+0,w
  8498  0BFE  2C00               	goto	u4627
  8499  0BFF  2C01               	goto	u4628
  8500  0C00                     u4627:
  8501  0C00  02A2               	subwf	(delay@data+2),f
  8502  0C01                     u4628:
  8503  0C01  0827               	movf	3+(??_delay+0)+0,w
  8504  0C02  1C03               	skipc
  8505  0C03  0F27               	incfsz	3+(??_delay+0)+0,w
  8506  0C04  2C06               	goto	u4629
  8507  0C05  2C07               	goto	u4620
  8508  0C06                     u4629:
  8509  0C06  02A3               	subwf	(delay@data+3),f
  8510  0C07                     u4620:
  8511                           
  8512  0C07  0823               	movf	(delay@data+3),w
  8513  0C08  0422               	iorwf	(delay@data+2),w
  8514  0C09  0421               	iorwf	(delay@data+1),w
  8515  0C0A  0420               	iorwf	(delay@data),w
  8516  0C0B  1D03               	skipz
  8517  0C0C  2C0E               	goto	u4631
  8518  0C0D  2C0F               	goto	u4630
  8519  0C0E                     u4631:
  8520  0C0E  2BEB               	goto	l3973
  8521  0C0F                     u4630:
  8522  0C0F  2C10               	goto	l663
  8523                           	
  8524  0C10                     l662:	
  8525                           	line	237
  8526                           	
  8527  0C10                     l663:	
  8528  0C10  0008               	return
  8529                           	opt stack 0
  8530                           GLOBAL	__end_of_delay
  8531  0C11                     	__end_of_delay:
  8532 ;; =============== function _delay ends ============
  8533                           
  8534                           	signat	_delay,4216
  8535                           	global	_isr
  8536                           psect	text1084,local,class=CODE,delta=2
  8537                           global __ptext1084
  8538  0D4C                     __ptext1084:
  8539                           
  8540 ;; *************** function _isr *****************
  8541 ;; Defined at:
  8542 ;;		line 149 in file "PR23.c"
  8543 ;; Parameters:    Size  Location     Type
  8544 ;;		None
  8545 ;; Auto vars:     Size  Location     Type
  8546 ;;		None
  8547 ;; Return value:  Size  Location     Type
  8548 ;;		None               void
  8549 ;; Registers used:
  8550 ;;		wreg, fsr0l, fsr0h, status,2, status,0
  8551 ;; Tracked objects:
  8552 ;;		On entry : 0/0
  8553 ;;		On exit  : 0/0
  8554 ;;		Unchanged: 0/0
  8555 ;; Data sizes:     COMMON   BANK0   BANK1   BANK3   BANK2
  8556 ;;      Params:         0       0       0       0       0
  8557 ;;      Locals:         0       0       0       0       0
  8558 ;;      Temps:          5       0       0       0       0
  8559 ;;      Totals:         5       0       0       0       0
  8560 ;;Total ram usage:        5 bytes
  8561 ;; Hardware stack levels used:    1
  8562 ;; This function calls:
  8563 ;;		Nothing
  8564 ;; This function is called by:
  8565 ;;		Interrupt level 1
  8566 ;; This function uses a non-reentrant model
  8567 ;;
  8568                           psect	text1084
  8569                           	file	"PR23.c"
  8570                           	line	149
  8571                           	global	__size_of_isr
  8572  0074                     	__size_of_isr	equ	__end_of_isr-_isr
  8573                           	
  8574  0D4C                     _isr:	
  8575                           	opt	stack 1
  8576                           ; Regs used in _isr: [wreg-fsr0h+status,2+status,0]
  8577                           psect	intentry,class=CODE,delta=2
  8578                           global __pintentry
  8579  0004                     __pintentry:
  8580                           global interrupt_function
  8581  0004                     interrupt_function:
  8582                           	global saved_w
  8583  007E                     	saved_w	set	btemp+0
  8584  0004  00FE               	movwf	saved_w
  8585  0005  0803               	movf	status,w
  8586  0006  00F6               	movwf	(??_isr+1)
  8587  0007  0804               	movf	fsr0,w
  8588  0008  00F7               	movwf	(??_isr+2)
  8589  0009  080A               	movf	pclath,w
  8590  000A  00F8               	movwf	(??_isr+3)
  8591  000B  1283               	bcf	status, 5	;RP0=0, select bank0
  8592  000C  1303               	bcf	status, 6	;RP1=0, select bank0
  8593  000D  087F               	movf	btemp+1,w
  8594  000E  00F9               	movwf	(??_isr+4)
  8595  000F  120A  158A  2D4C   	ljmp	_isr
  8596                           psect	text1084
  8597                           	line	150
  8598                           	
  8599  0D4C                     i1l3081:	
  8600                           ;PR23.c: 150: if (TMR0IF)
  8601  0D4C  1D0B               	btfss	(90/8),(90)&7
  8602  0D4D  2D4F               	goto	u329_21
  8603  0D4E  2D50               	goto	u329_20
  8604  0D4F                     u329_21:
  8605  0D4F  2D58               	goto	i1l3087
  8606  0D50                     u329_20:
  8607                           	line	152
  8608                           	
  8609  0D50                     i1l3083:	
  8610                           ;PR23.c: 151: {
  8611                           ;PR23.c: 152: TMR0IF = 0;
  8612  0D50  110B               	bcf	(90/8),(90)&7
  8613                           	line	153
  8614                           	
  8615  0D51                     i1l3085:	
  8616                           ;PR23.c: 153: To +=0x100;
  8617  0D51  3000               	movlw	low(0100h)
  8618  0D52  07F0               	addwf	(_To),f
  8619  0D53  1803               	skipnc
  8620  0D54  0AF1               	incf	(_To+1),f
  8621  0D55  3001               	movlw	high(0100h)
  8622  0D56  07F1               	addwf	(_To+1),f
  8623  0D57  2D58               	goto	i1l3087
  8624                           	line	154
  8625                           	
  8626  0D58                     i1l625:	
  8627                           	line	156
  8628                           	
  8629  0D58                     i1l3087:	
  8630                           ;PR23.c: 154: }
  8631                           ;PR23.c: 156: if(RBIF)
  8632  0D58  1C0B               	btfss	(88/8),(88)&7
  8633  0D59  2D5B               	goto	u330_21
  8634  0D5A  2D5C               	goto	u330_20
  8635  0D5B                     u330_21:
  8636  0D5B  2D70               	goto	i1l3097
  8637  0D5C                     u330_20:
  8638                           	line	158
  8639                           	
  8640  0D5C                     i1l3089:	
  8641                           ;PR23.c: 157: {
  8642                           ;PR23.c: 158: RBIF = 0;
  8643  0D5C  100B               	bcf	(88/8),(88)&7
  8644                           	line	159
  8645                           ;PR23.c: 159: if (RB4)
  8646  0D5D  1E06               	btfss	(52/8),(52)&7
  8647  0D5E  2D60               	goto	u331_21
  8648  0D5F  2D61               	goto	u331_20
  8649  0D60                     u331_21:
  8650  0D60  2D67               	goto	i1l3095
  8651  0D61                     u331_20:
  8652                           	line	161
  8653                           	
  8654  0D61                     i1l3091:	
  8655                           ;PR23.c: 160: {
  8656                           ;PR23.c: 161: TMR0 = 0;
  8657  0D61  0181               	clrf	(1)	;volatile
  8658                           	line	162
  8659                           	
  8660  0D62                     i1l3093:	
  8661                           ;PR23.c: 162: To = 0;
  8662  0D62  3000               	movlw	low(0)
  8663  0D63  00F0               	movwf	(_To)
  8664  0D64  3000               	movlw	high(0)
  8665  0D65  00F1               	movwf	((_To))+1
  8666                           	line	163
  8667                           ;PR23.c: 163: }
  8668  0D66  2D70               	goto	i1l3097
  8669                           	line	164
  8670                           	
  8671  0D67                     i1l627:	
  8672                           	
  8673  0D67                     i1l3095:	
  8674                           ;PR23.c: 164: else TH = TMR0 + To;
  8675  0D67  0801               	movf	(1),w	;volatile
  8676  0D68  0770               	addwf	(_To),w
  8677  0D69  00D1               	movwf	(_TH)
  8678  0D6A  0871               	movf	(_To+1),w
  8679  0D6B  1803               	skipnc
  8680  0D6C  0A71               	incf	(_To+1),w
  8681  0D6D  00D2               	movwf	((_TH))+1
  8682  0D6E  2D70               	goto	i1l3097
  8683                           	
  8684  0D6F                     i1l628:	
  8685  0D6F  2D70               	goto	i1l3097
  8686                           	line	165
  8687                           	
  8688  0D70                     i1l626:	
  8689                           	line	167
  8690                           	
  8691  0D70                     i1l3097:	
  8692                           ;PR23.c: 165: }
  8693                           ;PR23.c: 167: if(RCIF)
  8694  0D70  1E8C               	btfss	(101/8),(101)&7
  8695  0D71  2D73               	goto	u332_21
  8696  0D72  2D74               	goto	u332_20
  8697  0D73                     u332_21:
  8698  0D73  2DB5               	goto	i1l635
  8699  0D74                     u332_20:
  8700                           	line	169
  8701                           	
  8702  0D74                     i1l3099:	
  8703                           ;PR23.c: 168: {
  8704                           ;PR23.c: 169: RCIF = 0;
  8705  0D74  128C               	bcf	(101/8),(101)&7
  8706                           	line	171
  8707                           	
  8708  0D75                     i1l3101:	
  8709                           ;PR23.c: 171: if (RCREG == 'R') data[i=0]= RCREG;
  8710  0D75  081A               	movf	(26),w	;volatile
  8711  0D76  3A52               	xorlw	052h
  8712  0D77  1D03               	skipz
  8713  0D78  2D7A               	goto	u333_21
  8714  0D79  2D7B               	goto	u333_20
  8715  0D7A                     u333_21:
  8716  0D7A  2D85               	goto	i1l3105
  8717  0D7B                     u333_20:
  8718                           	
  8719  0D7B                     i1l3103:	
  8720  0D7B  081A               	movf	(26),w	;volatile
  8721  0D7C  00F5               	movwf	(??_isr+0)+0
  8722  0D7D  3000               	movlw	(0)
  8723  0D7E  00F3               	movwf	(_i)
  8724  0D7F  3E49               	addlw	_data&0ffh
  8725  0D80  0084               	movwf	fsr0
  8726  0D81  0875               	movf	(??_isr+0)+0,w
  8727  0D82  1383               	bcf	status, 7	;select IRP bank0
  8728  0D83  0080               	movwf	indf
  8729  0D84  2D96               	goto	i1l3109
  8730                           	line	172
  8731                           	
  8732  0D85                     i1l630:	
  8733                           	
  8734  0D85                     i1l3105:	
  8735                           ;PR23.c: 172: else if (RCREG == 100) data[i=0]= RCREG;
  8736  0D85  081A               	movf	(26),w	;volatile
  8737  0D86  3A64               	xorlw	064h
  8738  0D87  1D03               	skipz
  8739  0D88  2D8A               	goto	u334_21
  8740  0D89  2D8B               	goto	u334_20
  8741  0D8A                     u334_21:
  8742  0D8A  2D96               	goto	i1l3109
  8743  0D8B                     u334_20:
  8744                           	
  8745  0D8B                     i1l3107:	
  8746  0D8B  081A               	movf	(26),w	;volatile
  8747  0D8C  00F5               	movwf	(??_isr+0)+0
  8748  0D8D  3000               	movlw	(0)
  8749  0D8E  00F3               	movwf	(_i)
  8750  0D8F  3E49               	addlw	_data&0ffh
  8751  0D90  0084               	movwf	fsr0
  8752  0D91  0875               	movf	(??_isr+0)+0,w
  8753  0D92  1383               	bcf	status, 7	;select IRP bank0
  8754  0D93  0080               	movwf	indf
  8755  0D94  2D96               	goto	i1l3109
  8756                           	
  8757  0D95                     i1l632:	
  8758  0D95  2D96               	goto	i1l3109
  8759                           	line	173
  8760                           	
  8761  0D96                     i1l631:	
  8762                           	
  8763  0D96                     i1l3109:	
  8764                           ;PR23.c: 173: if ((data[0] == 'R'))data [i++] = RCREG;
  8765  0D96  0849               	movf	(_data),w
  8766  0D97  3A52               	xorlw	052h
  8767  0D98  1D03               	skipz
  8768  0D99  2D9B               	goto	u335_21
  8769  0D9A  2D9C               	goto	u335_20
  8770  0D9B                     u335_21:
  8771  0D9B  2DA9               	goto	i1l3115
  8772  0D9C                     u335_20:
  8773                           	
  8774  0D9C                     i1l3111:	
  8775  0D9C  081A               	movf	(26),w	;volatile
  8776  0D9D  00F5               	movwf	(??_isr+0)+0
  8777  0D9E  0873               	movf	(_i),w
  8778  0D9F  3E49               	addlw	_data&0ffh
  8779  0DA0  0084               	movwf	fsr0
  8780  0DA1  0875               	movf	(??_isr+0)+0,w
  8781  0DA2  1383               	bcf	status, 7	;select IRP bank0
  8782  0DA3  0080               	movwf	indf
  8783                           	
  8784  0DA4                     i1l3113:	
  8785  0DA4  3001               	movlw	(01h)
  8786  0DA5  00F5               	movwf	(??_isr+0)+0
  8787  0DA6  0875               	movf	(??_isr+0)+0,w
  8788  0DA7  07F3               	addwf	(_i),f
  8789  0DA8  2DA9               	goto	i1l3115
  8790                           	
  8791  0DA9                     i1l633:	
  8792                           	line	174
  8793                           	
  8794  0DA9                     i1l3115:	
  8795                           ;PR23.c: 174: if (i>4) i = 4;
  8796  0DA9  3005               	movlw	(05h)
  8797  0DAA  0273               	subwf	(_i),w
  8798  0DAB  1C03               	skipc
  8799  0DAC  2DAE               	goto	u336_21
  8800  0DAD  2DAF               	goto	u336_20
  8801  0DAE                     u336_21:
  8802  0DAE  2DB5               	goto	i1l635
  8803  0DAF                     u336_20:
  8804                           	
  8805  0DAF                     i1l3117:	
  8806  0DAF  3004               	movlw	(04h)
  8807  0DB0  00F5               	movwf	(??_isr+0)+0
  8808  0DB1  0875               	movf	(??_isr+0)+0,w
  8809  0DB2  00F3               	movwf	(_i)
  8810  0DB3  2DB5               	goto	i1l635
  8811                           	
  8812  0DB4                     i1l634:	
  8813  0DB4  2DB5               	goto	i1l635
  8814                           	line	175
  8815                           	
  8816  0DB5                     i1l629:	
  8817                           	line	176
  8818                           	
  8819  0DB5                     i1l635:	
  8820  0DB5  0879               	movf	(??_isr+4),w
  8821  0DB6  00FF               	movwf	btemp+1
  8822  0DB7  0878               	movf	(??_isr+3),w
  8823  0DB8  008A               	movwf	pclath
  8824  0DB9  0877               	movf	(??_isr+2),w
  8825  0DBA  0084               	movwf	fsr0
  8826  0DBB  0876               	movf	(??_isr+1),w
  8827  0DBC  0083               	movwf	status
  8828  0DBD  0EFE               	swapf	saved_w,f
  8829  0DBE  0E7E               	swapf	saved_w,w
  8830  0DBF  0009               	retfie
  8831                           	opt stack 0
  8832                           GLOBAL	__end_of_isr
  8833  0DC0                     	__end_of_isr:
  8834 ;; =============== function _isr ends ============
  8835                           
  8836                           	signat	_isr,88
  8837                           psect	text1085,local,class=CODE,delta=2
  8838                           global __ptext1085
  8839  0000                     __ptext1085:
  8840                           	global	btemp
  8841  007E                     	btemp set 07Eh
  8842                           
  8843                           	DABS	1,126,2	;btemp
  8844                           	global	wtemp0
  8845  007E                     	wtemp0 set btemp


HI-TECH Software PICC Macro Assembler V9.80 build 6745 
Symbol Table                                                                                   Wed Feb 20 15:42:27 2013

                      _T 004F                        _i 0073                        pc 0002  
                     _AS 1012                       _TH 0051                       _XB 103D  
                     _US 1030                       _To 0070                       fsr 0004  
    ___wmul@multiplicand 0022                      l700 0C43                      l703 054B  
                    l712 0AA6                      l640 06B3                      l713 0AA6  
                    l801 0737                      l641 06B3                      l706 0A9D  
                    l714 0AAD                      l730 0092                      l802 07F0  
                    l810 07BF                      l650 072C                      l642 06B8  
                    l707 0A9D                      l715 0AB3                      l731 0261  
                    l811 07EA                      l803 0755                      l651 0700  
                    l643 06C8                      l708 0AA2                      l724 0ED6  
                    l740 018C                      l732 00C4                      l812 07D8  
                    l804 0774                      l644 072D                      l652 0706  
                    l661 0BEB                      l709 0AA4                      l733 0260  
                    l741 025C                      l805 07ED                      l813 07E9  
                    l653 070C                      l645 06F4                      l662 0C10  
                    l718 0AC3                      l750 0241                      l742 01BE  
                    l734 00F6                      l814 07EE                      l806 078D  
                    l830 03EE                      l822 0298                      l654 0712  
                    l646 06F4                      l638 06AB                      l663 0C10  
                    l735 025F                      l743 025B                      l751 0240  
                    l727 002D                      l815 07EF                      l807 07EC  
                    l831 0333                      l823 02A7                      l655 0718  
                    l647 06F9                      l639 06EC                      l672 0BD3  
                    l744 01EF                      l736 0128                      l728 0060  
                    l816 07FC                      l808 07A6                      l832 03ED  
                    l840 036A                      l824 02AB                      l656 072E  
                    l648 0719                      l905 0B89                      l673 0BB4  
                    l681 0B1C                      l729 0262                      l737 025E  
                    l745 025A                      l753 023C                      l817 07FD  
                    l809 07EB                      l833 0377                      l841 0375  
                    l825 02EE                      l761 0573                      l657 072F  
                    l649 06FA                      l906 0B93                      l666 0C4C  
                    l674 0BDE                      l754 0259                      l746 0242  
                    l738 015A                      l818 07FE                      l826 03F0  
                    l842 03EC                      l850 03AC                      l834 0357  
                    l770 05A3                      l762 05BE                      l658 072F  
                    l907 0BA8                      l667 0C45                      l675 0BDE  
                    l739 025D                      l755 0258                      l747 0223  
                    l819 07FE                      l843 03B9                      l851 03B7  
                    l835 0350                      l827 0305                      l771 05CC  
                    l763 057B                      l908 0BAF                      l668 0C7D  
                    l684 0B3D                      l692 0AEA                      l756 0263  
                    l828 03EF                      l852 03EB                      l844 0399  
                    l836 0353                      l780 063B                      l772 05C6  
                    l764 057B                      l669 0C7D                      l757 0264  
                    l749 021F                      l853 03CB                      l845 0392  
                    l837 0376                      l829 031C                      l781 0661  
                    l773 05C6                      l765 0580                      l678 0B03  
                    l758 0264                      l790 0F23                      l854 03EA  
                    l846 0395                      l838 036E                      l862 0E32  
                    l870 0E2E                      l782 0653                      l774 05CB  
                    l766 05B4                      l695 0C2B                      l687 0B4F  
                    l791 0F66                      l855 03DD                      l847 03B8  
                    l839 0367                      l871 0E2F                      l863 0DC4  
                    l783 0660                      l775 05CE                      l767 058B  
                    l880 0F98                      l696 0C12                      l688 0B5E  
                    l792 0F3F                      l856 03E9                      l848 03B0  
                    l864 0E3F                      l872 0E31                      l784 0663  
                    l776 05CD                      l768 05BE                      l881 0FFF  
                    l689 0B5E                      l793 0F65                      l857 03F1  
                    l849 03A9                      l873 0E48                      l865 0DD3  
                    l785 0664                      l777 05DF                      l769 0597  
                    l890 0A8E                      l698 0C42                      l794 0F57  
                    l858 03F2                      l866 0DDA                      l786 0664  
                    l778 061F                      l699 0C43                      l795 0F64  
                    l859 03F2                      l867 0E1C                      l779 0662  
                    l884 0A79                      l876 0F91                      l796 0F67  
                    l868 0E30                      l893 0A87                      l877 0FE1  
                    l797 0F68                      l789 0EE8                      l869 0E2E  
                    l878 0F93                      l798 0F68                      l887 0A80  
                    l879 0F93                      l896 0A72                      _GIE 005F  
                    _RB0 0030                      _RA2 002A                      _RB1 0031  
                    _RC0 0038                      _RB2 0032                      _RB3 0033  
                    _RB4 0034                      _RC3 003B                      _RB5 0035  
                    _RE0 0048                      _RC4 003C                      _RB6 0036  
                    _RE1 0049                      _RC5 003D                      _RB7 0037  
                    _RE2 004A                      _REC 0072                      _PS0 0408  
                    _PR2 0092                      _PS1 0409                      _PS2 040A  
                    _PSA 040B                      _RX9 00C6                      _TX9 04C6  
                    _isr 0D4C                      _raw 0074                      fsr0 0004  
                    indf 0000          send_config@data 0028                     l1060 0C8C  
                   l1061 0C9F                     l1062 0CA0                     l1063 0CC1  
                   l1064 0CD1                     l1080 0D05                     l1065 0CDB  
                   l1081 0D06                     l1058 0CD2                     l1082 0D31  
                   l1059 0C9A                     l1083 0D41                     l1084 0D4B  
                   l1077 0D42                     l1078 0D00                     l1079 0CF2  
                   l4001 0B8D                     l4003 0B9A                     l4011 0C88  
                   l4005 0BA8                     l4021 0CC1                     l4013 0C8C  
                   l4101 0B2D                     l4007 0BAF                     l4023 0CCA  
                   l4015 0C9A                     l4031 0CEE                     l4103 0AEE  
                   l4111 0B07                     l4017 0CA0                     l4025 0CD2  
                   l4009 0C7E                     l4041 0D21                     l4033 0CF2  
                   l4105 0AEF                     l4113 0B08                     l4121 0E50  
                   l4201 0C11                     l4027 0CDB                     l4019 0CB2  
                   l4051 0D4B                     l4043 0D2F                     l4035 0D00  
                   l4107 0AF1                     l4115 0B0A                     l4131 0E6A  
                   l4123 0E54                     l4203 0C12                     l4211 0B41  
                   l4045 0D31                     l4037 0D06                     l4029 0CDC  
                   l4053 0C44                     l4061 0AC3                     l4109 0AFE  
                   l4117 0B17                     l4141 0E77                     l4133 0E6E  
                   l4125 0E56                     l4205 0C22                     l4213 0B47  
                   l4301 00FA                     l4221 0015                     l4047 0D3A  
                   l4039 0D0F                     l4055 0C45                     l4071 0F90  
                   l4063 0F6C                     l4151 0E7F                     l4143 0E79  
                   l4135 0E6F                     l4127 0E58                     l4119 0E49  
                   l4207 0C2B                     l4215 0B4F                     l4311 010F  
                   l4303 00FE                     l4231 0037                     l4223 001C  
                   l4049 0D42                     l4057 0AB7                     l4081 0FD4  
                   l4073 0F98                     l4065 0F76                     l4161 0E89  
                   l4153 0E80                     l4145 0E7C                     l4137 0E71  
                   l4129 0E5B                     l4209 0C33                     l4217 0B56  
                   l4401 020C                     l4321 0130                     l4313 0111  
                   l4305 0102                     l4241 0049                     l4233 003B  
                   l4225 0021                     l4059 0ABD                     l4083 0FDA  
                   l4075 0F9F                     l4067 0F83                     l4091 0BB5  
                   l4171 0E90                     l4163 0E8A                     l4155 0E81  
                   l4147 0E7D                     l4139 0E75                     l4219 03F3  
                   l4411 0223                     l4403 0212                     l4331 0143  
                   l4323 0134                     l4315 0116                     l4307 0106  
                   l4251 006C                     l4243 004E                     l4235 003F  
                   l4227 002D                     l4077 0FAE                     l4085 0FE1  
                   l4069 0F89                     l4093 0BC2                     l4181 0EA5  
                   l4173 0E93                     l4165 0E8B                     l4157 0E84  
                   l4149 0E7E                     l4421 023E                     l4413 0229  
                   l4405 0218                     l4341 0166                     l4333 0148  
                   l4325 0138                     l4317 011C                     l4309 010B  
                   l4261 0080                     l4253 0070                     l4245 0054  
                   l4237 0044                     l4229 0033                     l4501 078D  
                   l4087 0FFE                     l4079 0FB7                     l4095 0BD3  
                   l4191 0ECC                     l4183 0EAB                     l4175 0E94  
                   l4167 0E8E                     l4159 0E88                     l4423 0246  
                   l4415 022F                     l4407 021F                     l4351 017A  
                   l4343 016A                     l4335 014E                     l4327 013D  
                   l4319 012C                     l4271 00A2                     l4263 0086  
                   l4255 0075                     l4247 0064                     l4239 0047  
                   l4431 0ED7                     l4511 07B3                     l4503 0795  
                   l4089 0BB3                     l4097 0B1D                     l4193 0ECF  
                   l4185 0EB1                     l4177 0E95                     l4169 0E8F  
                   l4425 024A                     l4417 0235                     l4409 0220  
                   l4361 019C                     l4353 0180                     l4345 016F  
                   l4337 015E                     l4329 0141                     l4281 00B8  
                   l4273 00A7                     l4265 0096                     l4257 0079  
                   l4249 0068                     l4441 0EFC                     l4433 0EDC  
                   l4521 07DD                     l4513 07BF                     l4505 079A  
                   l4601 0377                     l4099 0B20                     l4195 0ED0  
                   l4187 0EB7                     l4179 0E98                     l4427 024E  
                   l4419 023C                     l4371 01B2                     l4363 01A1  
                   l4355 0190                     l4347 0173                     l4339 0162  
                   l4291 00D9                     l4283 00C8                     l4275 00AB  
                   l4267 009A                     l4259 007B                     l4451 0F21  
                   l4443 0F07                     l4435 0EE8                     l4515 07C7  
                   l4507 07A6                     l4523 07F0                     l4611 0392  
                   l4603 037B                     l4531 0275                     l4197 0ED1  
                   l4189 0EBD                     l4429 0252                     l4381 01D3  
                   l4373 01C2                     l4365 01A5                     l4357 0194  
                   l4349 0175                     l4293 00DD                     l4285 00CC  
                   l4277 00AD                     l4269 009E                     l4461 0F3D  
                   l4445 0F16                     l4453 0F23                     l4437 0EEE  
                   l4517 07CC                     l4509 07AE                     l4621 03A9  
                   l4613 0395                     l4605 0380                     l4541 02A3  
                   l4533 027B                     l4525 0265                     l4701 05CE  
                   l4199 0AD5                     l4391 01F3                     l4383 01D7  
                   l4375 01C6                     l4367 01A7                     l4359 0198  
                   l4295 00DF                     l4287 00D0                     l4279 00B2  
                   l4471 0F5C                     l4455 0F32                     l4463 0F3F  
                   l4447 0F1B                     l4439 0EF4                     l4519 07D8  
                   l4631 03C2                     l4623 03AC                     l4607 0386  
                   l4615 0399                     l4551 02EE                     l4543 02AB  
                   l4535 0286                     l4527 026B                     l4711 0612  
                   l4703 05D3                     l4393 01F7                     l4385 01D8  
                   l4377 01CA                     l4369 01AC                     l4297 00E4  
                   l4289 00D4                     l4473 0F60                     l4465 0F4E  
                   l4457 0F37                     l4449 0F1F                     l4481 0745  
                   l4641 03D9                     l4633 03C7                     l4617 039D  
                   l4625 03B0                     l4609 038C                     l4561 0310  
                   l4553 02F9                     l4545 02E2                     l4537 028C  
                   l4529 0270                     l4721 062E                     l4713 0617  
                   l4705 05DF                     l4395 01FB                     l4387 01DD  
                   l4379 01CE                     l4299 00EA                     l4475 0F62  
                   l4467 0F53                     l4459 0F3B                     l4491 0763  
                   l4483 074E                     l4643 03DD                     l4635 03CB  
                   l4619 03A3                     l4627 03B9                     l4571 032C  
                   l4563 0315                     l4555 02FE                     l4547 02E7  
                   l4539 0298                     l4651 0DC4                     l4731 064A  
                   l4723 0633                     l4715 061B                     l4707 05F5  
                   l4397 01FF                     l4389 01E3                     l4469 0F57  
                   l4493 0768                     l4485 0752                     l4477 0732  
                   l4645 03E2                     l4637 03CF                     l4629 03BD  
                   l4581 0344                     l4573 0330                     l4565 0319  
                   l4557 0302                     l4549 02EB                     l4661 0E1C  
                   l4653 0DCA                     l4741 065E                     l4733 064F  
                   l4725 0637                     l4717 061D                     l4709 0603  
                   l4399 0204                     l4495 0774                     l4487 0755  
                   l4479 073D                     l4647 03E6                     l4639 03D4  
                   l4591 035B                     l4583 034A                     l4575 0333  
                   l4567 031C                     l4559 0305                     l4663 0E22  
                   l4655 0DD3                     l4735 0653                     l4727 0639  
                   l4719 061F                     l4671 054C                     l4751 067F  
                   l4743 0665                     l4497 077C                     l4489 075B  
                   l4593 0361                     l4585 0350                     l4577 0339  
                   l4569 0327                     l4657 0DDA                     l4665 0E32  
                   l4649 0DC3                     l4737 0658                     l4729 063B  
                   l4681 0573                     l4673 0551                     l4761 06AB  
                   l4753 0684                     l4745 0671                     l3971 0BEA  
                   l4499 0781                     l4595 0367                     l4587 0353  
                   l4579 033E                     l4659 0DE0                     l4667 0E3F  
                   l4739 065C                     l4691 0597                     l4683 057A  
                   l4675 0556                     l4771 06C8                     l4763 06B2  
                   l4755 068F                     l4747 0676                     l3973 0BEB  
                   l3981 0AAD                     l4597 036A                     l4589 0357  
                   l4669 0E48                     l4693 05A3                     l4685 0580  
                   l4677 0561                     l4781 06FA                     l4773 06CE  
                   l4765 06B8                     l4757 0695                     l4749 067C  
                   l3975 0A9C                     l3983 0AB3                     l3991 0A7A  
                   l4599 036E                     l4695 05AE                     l4687 0584  
                   l4679 0567                     l4783 0700                     l4791 0719  
                   l4775 06E0                     l4767 06BC                     l4759 06A7  
                   l3969 0BDF                     l3977 0AA2                     l3993 0A81  
                   l4689 058B                     l4697 05B4                     l4785 0706  
                   l4769 06C2                     l4777 06EC                     l3979 0AA5  
                   l3987 0A6C                     l3995 0A88                     l4699 05C5  
                   l4787 070C                     l4779 06F3                     ?_isr 0075  
                   l3989 0A73                     l3997 0B82                     l4789 0712  
                   _ADGO 00FA                     l3999 0B89                     _ADON 00F8  
                   STR_1 10ED                     STR_2 1068                     STR_3 112A  
                   STR_4 113B                     STR_5 1118                     STR_6 1104  
                   STR_7 1104                     STR_8 1143                     STR_9 10F9  
                   _BRGH 04C2                     _CREN 00C4                     _T0CS 040D  
                   u5000 006C                     u5001 006B                     u5010 0070  
                   u5011 006F                     u5100 00FA                     u5020 0096  
                   u5101 00F9                     u5021 0095                     u5110 00FE  
                   u5030 009A                     u5111 00FD                     u5031 0099  
                   u5200 0166                     u5120 0102                     u5040 009E  
                   u5201 0165                     u5121 0101                     u5041 009D  
                   u5210 016A                     u5130 0106                     u5050 00A2  
                   u5211 0169                     u5131 0105                     u5051 00A1  
                   u5300 01F3                     u5220 0190                     u5140 012C  
                   u5060 00C8                     u5301 01F2                     u5221 018F  
                   u5141 012B                     u5061 00C7                     u5310 01F7  
                   u5230 0194                     u5150 0130                     u5070 00CC  
                   u5311 01F6                     u5231 0193                     u5151 012F  
                   u5071 00CB                     u5400 0235                     u5320 01FB  
                   u5240 0198                     u5160 0134                     u5080 00D0  
                   u5401 0234                     u5321 01FA                     u5241 0197  
                   u5161 0133                     u5081 00CF                     u4610 0BE9  
                   u5410 023B                     u5330 01FF                     u5250 019C  
                   u5170 0138                     u5090 00D4                     u4611 0BE8  
                   u5411 023A                     u5331 01FE                     u5251 019B  
                   u5171 0137                     u5091 00D3                     _PEIE 005E  
                   u4620 0C07                     u4700 0C88                     u5420 0246  
                   u5340 020C                     u5260 01C2                     u5180 015E  
                   u5500 0763                     u4701 0C87                     u5421 0245  
                   u5341 020B                     u5261 01C1                     u5181 015D  
                   u5501 0762                     u4630 0C0F                     u5430 024A  
                   u5350 0212                     u5270 01C6                     u5190 0162  
                   u5510 077C                     u4631 0C0E                     u5431 0249  
                   u5351 0211                     u5271 01C5                     u5191 0161  
                   u5511 077B                     _RBIE 005B                     u4640 0AA1  
                   u4720 0C9E                     u4800 0D21                     u5440 024E  
                   u5360 0218                     u5280 01CA                     u5520 0795  
                   u5600 0339                     _RBIF 0058                     u4625 0BFA  
                   u4641 0AA0                     u4721 0C9D                     u4801 0D20  
                   u5441 024D                     u5361 0217                     u5281 01C9  
                   u5521 0794                     u4626 0BFB                     u4650 0AAC  
                   u4730 0CB2                     u5450 0252                     u5370 021E  
                   u5290 01CE                     u5530 07AE                     u5610 0344  
                   u4627 0C00                     u4651 0AAB                     u4731 0CB1  
                   u4715 0C8E                     u5451 0251                     u5371 021D  
                   u5291 01CD                     u5531 07AD                     _RCIE 0465  
                   u4628 0C01                     u4660 0B8D                     u4820 0D40  
                   u4900 0BDD                     u5380 0229                     u5460 0F16  
                   u5540 07C7                     u5700 03BD                     u5620 034A  
                   _RCIF 0065                     u4629 0C06                     u4661 0B8C  
                   u4821 0D3F                     u4805 0D1D                     u4901 0BDC  
                   u5381 0228                     u5461 0F15                     u5541 07C6  
                   u5621 0349                     u4750 0CD0                     u4830 0C6A  
                   u4910 0C33                     u5390 022F                     u5470 0F32  
                   u5710 03CF                     u5630 035B                     u5550 02A3  
                   u4751 0CCF                     u4735 0CAE                     u4815 0D32  
                   u4911 0C32                     u5391 022E                     u5471 0F31  
                   u5551 02A2                     u4760 0CEE                     u4840 0C7C  
                   u4920 0C41                     u5480 0F4E                     u5640 0361  
                   u5560 02E2                     u5720 0DE0                     u5800 06B1  
                   u4745 0CC2                     u4761 0CED                     u4841 0C7B  
                   u4921 0C40                     u5481 0F4D                     u5465 0F12  
                   u5641 0360                     u5561 02E1                     u5721 0DDF  
                   u5801 06B0                     u4690 0BA7                     u4850 0F8F  
                   u4930 0B47                     u5490 0745                     u5650 037B  
                   u5570 02F9                     u5730 0579                     u5810 06B7  
                   u4691 0BA6                     u4675 0B94                     u4835 0C5D  
                   u4851 0F8E                     u4931 0B46                     u5475 0F2E  
                   u5491 0744                     u5571 02F8                     u5731 0578  
                   u5811 06B6                     u4780 0D04                     u4836 0C5E  
                   u4860 0F97                     u4940 0033                     u5660 0386  
                   u5580 0310                     u5740 057F                     u5820 06C2  
                   u4685 0B9B                     u4781 0D03                     u4845 0C78  
                   u4837 0C63                     u4861 0F96                     u4941 0032  
                   u5485 0F4A                     u5581 030F                     u5741 057E  
                   u5821 06C1                     u4838 0C64                     u4950 0037  
                   u5670 038C                     u5590 0327                     u5750 05C4  
                   u5830 06F2                     u4775 0CF4                     u4839 0C69  
                   u4951 0036                     u5671 038B                     u5591 0326  
                   u5751 05C3                     u5831 06F1                     u4960 003B  
                   u5680 039D                     u5760 05CA                     u5840 06F8  
                   u4881 0FC6                     u4961 003A                     u5761 05C9  
                   u5841 06F7                     u4890 0FE0                     u4882 0FCD  
                   u4970 003F                     u5690 03A3                     u5770 0612  
                   u4795 0D08                     u4891 0FDF                     u4883 0FD4  
                   u4875 0FA5                     u4971 003E                     u5691 03A2  
                   u5771 0611                     u4980 0064                     u5780 062E  
                   u4981 0063                     u5781 062D                     u4990 0068  
                   u5790 064A                     u4991 0067                     u5791 0649  
                   u5775 060E                     u5857 0C49                     u5785 062A  
                   u5795 0646                     _TMR0 0001                     _SPEN 00C7  
                   _SKPS 1046                     _TXEN 04C5                     _TXIF 0064  
                   _beep 0BB0                     _data 0049                     _main 0665  
                   _left 0A88                     _line 1022                     _init 0E49  
                   _mode 0055                     _skps 0AB4                     btemp 007E  
                   _stop 0A6C             lcd_goto@data 002A                     start 0012  
 __size_of_wireless_xbee 00CD                    ??_isr 0075                    ?_beep 0075  
                  ?_main 0075                    ?_left 0075                    ?_init 0075  
                  STR_10 10F9                    STR_11 110F                    STR_12 1133  
                  STR_20 1092                    STR_13 10E0                    STR_21 10B4  
                  STR_14 1162                    STR_30 10D2                    STR_22 105F  
                  STR_15 1158                    STR_23 1081                    STR_16 115D  
                  STR_24 1070                    STR_17 1153                    STR_25 104D  
                  STR_26 104D                    STR_18 1121                    STR_19 1121  
                  STR_27 114B                    STR_28 10A3                    STR_29 10C4  
                  ?_skps 0075          __end_of___lldiv 0D4C                    ?_stop 0075  
        __end_of___llmod 0CDC                    _T2CON 0012                    i1l630 0D85  
                  i1l631 0D96                    i1l632 0D95                    i1l633 0DA9  
                  i1l625 0D58                    i1l634 0DB4                    i1l626 0D70  
                  i1l635 0DB5                    i1l627 0D67                    i1l628 0D6F  
                  i1l629 0DB5             ?_line_follow 0075                    _RCREG 001A  
                  _SPBRG 0099                    _PORTA 0005                    _PORTB 0006  
                  _PORTC 0007                    _PORTD 0008                    _PORTE 0009  
                  _TRISA 0085                    _TRISB 0086                    _TRISC 0087  
                  _TRISD 0088                    _TRISE 0089                    _TXREG 0019  
        __end_of_e_pulse 0B3E          __end_of_dis_num 054C          __end_of_lcd_clr 0AEB  
                  _delay 0BDF          __end_of_forward 0A7A                    _right 0A81  
    read_adc@result_temp 0033                    main@i 0047                    main@m 0048  
                  pclath 000A              ?_SKPS_PScon 0075                    status 0003  
                  wtemp0 007E             __end_of_beep 0BDF             __end_of_main 0732  
           __end_of_left 0A8F             __end_of_init 0ED7             __end_of_skps 0AC4  
           __end_of_stop 0A73                   ??_beep 0028                   ??_main 0046  
                 ??_left 0020                   ??_init 0029                   ??_skps 0022  
                 ??_stop 0020            _wireless_xbee 0732                   ?_delay 0020  
           ?_send_config 0075                   _ADCON0 001F                   _ADCON1 009F  
       ___llmod@dividend 0024                   _ADRESH 001E                   _ADRESL 009E  
                 _CCPR1L 0015                   _CCPR2L 001B                   ?_right 0075  
                 i1l3101 0D75                   i1l3111 0D9C                   i1l3103 0D7B  
                 i1l3113 0DA4                   i1l3105 0D85                   i1l3115 0DA9  
                 i1l3107 0D8B                   i1l3117 0DAF                   i1l3109 0D96  
                 i1l3081 0D4C                   i1l3091 0D61                   i1l3083 0D50  
                 i1l3093 0D62                   i1l3085 0D51                   i1l3095 0D67  
                 i1l3087 0D58                   i1l3089 0D5C                   i1l3097 0D70  
                 i1l3099 0D74                   u330_20 0D5C                   u330_21 0D5B  
                 u331_20 0D61                   u331_21 0D60                   u332_20 0D74  
                 u332_21 0D73                   u333_20 0D7B                   u333_21 0D7A  
                 u334_20 0D8B                   u334_21 0D8A                   u335_20 0D9C  
           ?_send_string 0029                   u335_21 0D9B                   u336_20 0DAF  
                 u336_21 0DAE                   u329_20 0D50                   u329_21 0D4F  
       __end_of_backward 0A81                   _TMR0IE 005D                   _TMR0IF 005A  
       __end_of_delay_ms 0C7E         __end_of_lcd_goto 0B5F                   ___wmul 0B82  
              ??___lldiv 0028                ??___llmod 0028         __end_of_read_adc 1000  
              ??_e_pulse 0028                   _result 0053      __size_of_SKPS_PScon 018E  
              ??_dis_num 0032                ??_lcd_clr 0029                ??_forward 0020  
       __end_of_uart_rec 0AB4                   saved_w 007E           ?_wireless_xbee 0075  
       __end_of_us_value 0E49           __pcstackCOMMON 0075             __pidataBANK0 0A8F  
          __end_of_delay 0C11            __end_of_right 0A88             us_value@mode 003F  
   __size_of_line_follow 0250                  ??_delay 0024                  ??_right 0020  
             __pbssBANK0 0049               _analog_sen 0ED7               __pmaintext 0665  
                ?___wmul 0020               __pintentry 0004       __size_of_send_char 0019  
                _CCP1CON 0017                  _CCP2CON 001D               __ptext1060 0015  
             __ptext1061 03F3               __ptext1070 0F69               __ptext1062 0B3E  
             __ptext1071 0AB4               __ptext1063 0C11               __ptext1055 054C  
             __ptext1080 0A6C               __ptext1072 0C44               __ptext1064 0AD5  
             __ptext1056 0DC0               __ptext1081 0AA5               __ptext1073 0CDC  
             __ptext1065 0E49               __ptext1057 0265               __ptext1082 0A99  
             __ptext1074 0C7E               __ptext1066 0B04               __ptext1058 0732  
             __ptext1083 0BDF               __ptext1075 0B82               __ptext1067 0AEB  
             __ptext1059 0ED7               __ptext1084 0D4C               __ptext1076 0A88  
             __ptext1068 0B1D               __ptext1085 0000               __ptext1077 0A81  
             __ptext1069 0BB0               __ptext1078 0A7A               __ptext1079 0A73  
              ?_backward 0075          ??_wireless_xbee 002B       __size_of_uart_send 000C  
              ?_delay_ms 0020                ?_lcd_goto 0075             ??_SKPS_PScon 002B  
   __size_of_send_config 0019                ?_read_adc 0075     __size_of_send_string 0033  
              ?_uart_rec 0075                  ___lldiv 0CDC          __size_of___wmul 002E  
                ___llmod 0C7E                ?_us_value 0039                  _e_pulse 0B1D  
                _dis_num 03F3                  _lcd_clr 0AD5               ??_backward 0020  
     __end_of_SKPS_PScon 03F3                  _forward 0A73             __size_of_isr 0074  
             ??_delay_ms 0024               ??_lcd_goto 0029     end_of_initialization 0B7E  
      SKPS_PScon@right_v 002F        __end_of_send_char 0B1D                  init_ram 0AC8  
             ??_read_adc 002E              ?_analog_sen 0075        __end_of_uart_send 0AA5  
        ___lldiv@divisor 0020          ___lldiv@counter 002D               ??_uart_rec 0020  
           __pstringtext 1000            send_char@data 0028               ??_us_value 003B  
             _ultrasonic 054C           __end_of___wmul 0BB0      start_initialization 0B5F  
    __size_of_analog_sen 0092            us_value@value 0040              __end_of_isr 0DC0  
        ___llmod@divisor 0020          ___llmod@counter 0029                 ??___wmul 0024  
    dis_num@ten_thousand 0034              __pdataBANK0 0055            ??_line_follow 002B  
            __pbssCOMMON 0070        __size_of_backward 0007            __pcstackBANK0 0020  
      __size_of_delay_ms 003A  dis_num@hundred_thousand 0033        __size_of_lcd_goto 0021  
      __size_of_read_adc 0097              ?_ultrasonic 0075                 ?___lldiv 0020  
               ?___llmod 0020                beep@count 0028        __size_of_uart_rec 000F  
               ?_e_pulse 0075                 ?_dis_num 002E                 ?_lcd_clr 0075  
      __size_of_us_value 0089                 ?_forward 0075              ultrasonic@n 0043  
  __end_of_wireless_xbee 07FF            ??_send_config 0028           __size_of_delay 0032  
    __end_of_line_follow 0265           __size_of_right 0007                delay@data 0020  
          ??_send_string 002B        interrupt_function 0004         SKPS_PScon@left_v 002E  
       SKPS_PScon@down_v 002D           ___wmul@product 0024                _send_char 0B04  
           ??_analog_sen 0039                _uart_send 0A99           read_adc@config 0032  
            __stringbase 1012        ___wmul@multiplier 0020       __end_of_analog_sen 0F69  
    __size_of_ultrasonic 0119             delay_ms@data 0020      __end_of_send_config 0B04  
             ?_send_char 0075             send_string@s 0029      __end_of_send_string 0C44  
              init_fetch 0AC4                read_adc@i 0037               ?_uart_send 0075  
       __size_of___lldiv 0070         __size_of___llmod 005E                 _backward 0A7A  
       __size_of_e_pulse 0021         __size_of_dis_num 0159              _line_follow 0015  
       __size_of_lcd_clr 0016         __size_of_forward 0007                 _delay_ms 0C44  
               _lcd_goto 0B3E            __size_of_beep 002F                 _read_adc 0F69  
          __size_of_main 00CD            __size_of_left 0007            __size_of_init 008E  
          __size_of_skps 0010       ultrasonic@distance 0044            __size_of_stop 0007  
               _uart_rec 0AA5        line_follow@memory 002C                 _us_value 0DC0  
            _send_config 0AEB                 intlevel1 0000              _send_string 0C11  
       ___lldiv@dividend 0024              ??_send_char 0028                stringcode 100A  
           ??_ultrasonic 0042           SKPS_PScon@up_v 002C                 skps@data 0022  
            ??_uart_send 0020            uart_send@data 0020         ___lldiv@quotient 0029  
     analog_sen@distance 0039                 stringtab 1000             uart_rec@temp 0021  
     __end_of_ultrasonic 0665               _SKPS_PScon 0265           dis_num@hundred 0036  
        dis_num@thousand 0035              dis_num@data 002E             dis_num@tenth 0037  
